# SymbolsHelper-Confirmed: 6.4.1 amd64 i386
libmapserver.so.1 #PACKAGE# #MINVER#
 BuildExpressionTree@Base 6.2.1
 CleanVSIDir@Base 6.2.1
 CompareEllipseRegion@Base 6.2.1
 CompareRectangleRegion@Base 6.2.1
 DBFIsValueNULL@Base 6.2.1
 DefineAxis@Base 6.2.1
 FLTApplyExpressionToLayer@Base 6.2.1
 FLTApplyFilterToLayer@Base 6.2.1
 FLTApplyFilterToLayerCommonExpression@Base 6.2.1
 FLTApplySimpleSQLFilter@Base 6.2.1
 FLTCreateBinaryCompFilterEncodingNode@Base 6.2.1
 FLTCreateFeatureIdFilterEncoding@Base 6.2.1
 FLTCreateFilterEncodingNode@Base 6.2.1
 FLTFreeFilterEncodingNode@Base 6.2.1
 FLTGML2Shape_XMLNode@Base 6.2.1
 FLTGetBBOX@Base 6.2.1
 FLTGetBinaryComparisonCommonExpression@Base 6.2.1
 FLTGetBinaryComparisonExpresssion@Base 6.2.1
 FLTGetBinaryComparisonSQLExpresssion@Base 6.2.1
 FLTGetCapabilities@Base 6.2.1
 FLTGetCommonExpression@Base 6.2.1
 FLTGetExpressionForValuesRanges@Base 6.2.1
 FLTGetFeatureIdCommonExpression@Base 6.2.1
 FLTGetGeosOperator@Base 6.2.1
 FLTGetIsBetweenComparisonCommonExpresssion@Base 6.2.1
 FLTGetIsBetweenComparisonExpresssion@Base 6.2.1
 FLTGetIsBetweenComparisonSQLExpresssion@Base 6.2.1
 FLTGetIsLikeComparisonCommonExpression@Base 6.2.1
 FLTGetIsLikeComparisonExpression@Base 6.2.1
 FLTGetIsLikeComparisonSQLExpression@Base 6.2.1
 FLTGetLogicalComparisonCommonExpression@Base 6.2.1
 FLTGetLogicalComparisonExpresssion@Base 6.2.1
 FLTGetLogicalComparisonSQLExpresssion@Base 6.2.1
 FLTGetMapserverExpression@Base 6.2.1
 FLTGetNodeExpression@Base 6.2.1
 FLTGetSQLExpression@Base 6.2.1
 FLTGetShape@Base 6.2.1
 FLTGetSpatialComparisonCommonExpression@Base 6.2.1
 FLTHasSpatialFilter@Base 6.2.1
 FLTInsertElementInNode@Base 6.2.1
 FLTIsBBoxFilter@Base 6.2.1
 FLTIsBinaryComparisonFilterType@Base 6.2.1
 FLTIsComparisonFilterType@Base 6.2.1
 FLTIsFeatureIdFilterType@Base 6.2.1
 FLTIsGeosNode@Base 6.2.1
 FLTIsLineFilter@Base 6.2.1
 FLTIsLogicalFilterType@Base 6.2.1
 FLTIsNumeric@Base 6.2.1
 FLTIsPointFilter@Base 6.2.1
 FLTIsPolygonFilter@Base 6.2.1
 FLTIsSimpleFilter@Base 6.2.1
 FLTIsSimpleFilterNoSpatial@Base 6.2.1
 FLTIsSpatialFilterType@Base 6.2.1
 FLTIsSupportedFilterType@Base 6.2.1
 FLTLayerApplyCondSQLFilterToLayer@Base 6.2.1
 FLTLayerApplyPlainFilterToLayer@Base 6.2.1
 FLTNumberOfFilterType@Base 6.2.1
 FLTParseEpsgString@Base 6.2.1
 FLTParseFilterEncoding@Base 6.2.1
 FLTParseGMLBox@Base 6.2.1
 FLTParseGMLEnvelope@Base 6.2.1
 FLTPreParseFilterForAlias@Base 6.2.1
 FLTShapeFromGMLTree@Base 6.2.1
 FLTValidFilterNode@Base 6.2.1
 FLTValidForBBoxFilter@Base 6.2.1
 FLTogrConvertGeometry@Base 6.2.1
 GetDeltaExtentsUsingScale@Base 6.2.1
 GetMapserverUnitUsingProj@Base 6.2.1
 InvGeoTransform@Base 6.2.1
 LayerDefaultAutoProjection@Base 6.2.1
 LayerDefaultClose@Base 6.2.1
 LayerDefaultCloseConnection@Base 6.2.1
 LayerDefaultCreateItems@Base 6.2.1
 LayerDefaultEscapePropertyName@Base 6.2.1
 LayerDefaultEscapeSQLParam@Base 6.2.1
 LayerDefaultFreeItemInfo@Base 6.2.1
 LayerDefaultGetAutoStyle@Base 6.2.1
 LayerDefaultGetExtent@Base 6.2.1
 LayerDefaultGetItems@Base 6.2.1
 LayerDefaultGetNumFeatures@Base 6.2.1
 LayerDefaultGetShape@Base 6.2.1
 LayerDefaultInitItemInfo@Base 6.2.1
 LayerDefaultIsOpen@Base 6.2.1
 LayerDefaultNextShape@Base 6.2.1
 LayerDefaultOpen@Base 6.2.1
 LayerDefaultSupportsCommonFilters@Base 6.2.1
 LayerDefaultWhichShapes@Base 6.2.1
 ParseTextLinePlacement@Base 6.2.1
 ParseTextPointPlacement@Base 6.2.1
 Pix2Georef@Base 6.2.1
 Pix2LayerGeoref@Base 6.2.1
 RebuildClusters@Base 6.2.1
 _SLDApplyRuleValues@Base 6.2.1
 _Z11agg2CleanupPv@Base 6.2.1
 (arch=!ia64 !powerpc !s390 !s390x !sparc)_Z11aggLoadFontP16aggRendererCachePcd@Base 6.4.0
 _Z13agg2FreeImageP8imageObj@Base 6.2.1
 _Z13agg2InitCachePPv@Base 6.2.1
 _Z13agg2SaveImageP8imageObjP6mapObjP8_IO_FILEP15outputFormatObj@Base 6.2.1
 _Z14agg2FreeSymbolP9symbolObj@Base 6.2.1
 _Z14agg2RenderLineP8imageObjP8shapeObjP14strokeStyleObj@Base 6.2.1
 _Z14agg2RenderTileP8imageObjS0_dd@Base 6.2.1
 _Z15agg2CreateImageiiP15outputFormatObjP8colorObj@Base 6.2.1
 _Z16agg2RenderGlyphsP8imageObjddP13labelStyleObjPc@Base 6.2.1
 _Z17agg2CloseNewLayerP8imageObjP6mapObjP8layerObj@Base 6.2.1
 _Z17agg2RenderPolygonP8imageObjP8shapeObjP8colorObj@Base 6.2.1
 _Z17agg2StartNewLayerP8imageObjP6mapObjP8layerObj@Base 6.2.1
 _Z17msOGRFileReadTileP8layerObjP18ms_ogr_file_info_ti@Base 6.2.1
 _Z19agg2RenderLineTiledP8imageObjP8shapeObjS0_@Base 6.2.1
 _Z19msOGREscapeSQLParamP8layerObjPKc@Base 6.2.1
 _Z20agg2RenderGlyphsLineP8imageObjP12labelPathObjP13labelStyleObjPc@Base 6.2.1
 (optional=templinst)_Z20renderPolygonHatchesIN9mapserver12conv_clipperI15polygon_adaptorNS0_11conv_strokeINS0_9conv_dashINS0_9path_baseINS0_20vertex_block_storageIdLj8ELj256EEEEENS0_12null_markersEEES9_EEEEEvP8imageObjRT_P8colorObj@Base 6.2.1
 (optional=templinst)_Z20renderPolygonHatchesIN9mapserver12conv_clipperI15polygon_adaptorNS0_11conv_strokeINS0_9path_baseINS0_20vertex_block_storageIdLj8ELj256EEEEENS0_12null_markersEEEEEEvP8imageObjRT_P8colorObj@Base 6.2.1
 _Z21agg2MergeRasterBufferP8imageObjP15rasterBufferObjdiiiiii@Base 6.2.1
 _Z22agg2RenderBitmapGlyphsP8imageObjddP13labelStyleObjPc@Base 6.2.1
 _Z22agg2RenderPixmapSymbolP8imageObjddP9symbolObjP14symbolStyleObj@Base 6.2.1
 _Z22agg2RenderPolygonTiledP8imageObjP8shapeObjS0_@Base 6.2.1
 _Z22agg2RenderVectorSymbolP8imageObjddP9symbolObjP14symbolStyleObj@Base 6.2.1
 _Z22aggGetRasterBufferCopyP8imageObjP15rasterBufferObj@Base 6.2.1
 _Z23agg2GetTruetypeTextBBoxP17rendererVTableObjPPcidS1_P7rectObjPPdi@Base 6.2.1
 _Z23agg2RenderEllipseSymbolP8imageObjddP9symbolObjP14symbolStyleObj@Base 6.2.1
 _Z23msOGREscapePropertyNameP8layerObjPKc@Base 6.2.1
 _Z24agg2RenderTruetypeSymbolP8imageObjddP9symbolObjP14symbolStyleObj@Base 6.2.1
 _Z24aggGetRasterBufferHandleP8imageObjP15rasterBufferObj@Base 6.2.1
 _Z25aggInitializeRasterBufferP15rasterBufferObjiii@Base 6.2.1
 _ZN10ClipperLib10SwapPointsERNS_8IntPointES1_@Base 6.2.1
 _ZN10ClipperLib11ClipperBase10AddPolygonERKSt6vectorINS_8IntPointESaIS2_EENS_8PolyTypeE@Base 6.2.1
 _ZN10ClipperLib11ClipperBase11AddPolygonsERKSt6vectorIS1_INS_8IntPointESaIS2_EESaIS4_EENS_8PolyTypeE@Base 6.2.1
 _ZN10ClipperLib11ClipperBase14AddBoundsToLMLEPNS_5TEdgeE@Base 6.2.1
 _ZN10ClipperLib11ClipperBase14PopLocalMinimaEv@Base 6.2.1
 _ZN10ClipperLib11ClipperBase17InsertLocalMinimaEPNS_11LocalMinimaE@Base 6.2.1
 _ZN10ClipperLib11ClipperBase22DisposeLocalMinimaListEv@Base 6.2.1
 _ZN10ClipperLib11ClipperBase5ClearEv@Base 6.2.1
 _ZN10ClipperLib11ClipperBase5ResetEv@Base 6.2.1
 _ZN10ClipperLib11ClipperBase9GetBoundsEv@Base 6.2.1
 _ZN10ClipperLib11ClipperBaseC1Ev@Base 6.2.1
 _ZN10ClipperLib11ClipperBaseC2Ev@Base 6.2.1
 _ZN10ClipperLib11ClipperBaseD0Ev@Base 6.2.1
 _ZN10ClipperLib11ClipperBaseD1Ev@Base 6.2.1
 _ZN10ClipperLib11ClipperBaseD2Ev@Base 6.2.1
 _ZN10ClipperLib11FindSegmentERPNS_5OutPtERNS_8IntPointES4_@Base 6.2.1
 _ZN10ClipperLib11OrientationEPNS_6OutRecEb@Base 6.2.1
 _ZN10ClipperLib11OrientationERKSt6vectorINS_8IntPointESaIS1_EE@Base 6.2.1
 _ZN10ClipperLib11SlopesEqualENS_8IntPointES0_S0_S0_b@Base 6.2.1
 _ZN10ClipperLib11SlopesEqualENS_8IntPointES0_S0_b@Base 6.2.1
 _ZN10ClipperLib11SlopesEqualERNS_5TEdgeES1_b@Base 6.2.1
 _ZN10ClipperLib12GetNextInAELEPNS_5TEdgeENS_9DirectionE@Base 6.2.1
 _ZN10ClipperLib13DisposeOutPtsERPNS_5OutPtE@Base 6.2.1
 _ZN10ClipperLib13GetMaximaPairEPNS_5TEdgeE@Base 6.2.1
 _ZN10ClipperLib13GetUnitNormalERKNS_8IntPointES2_@Base 6.2.1
 _ZN10ClipperLib13PointIsVertexERKNS_8IntPointEPNS_5OutPtE@Base 6.2.1
 _ZN10ClipperLib13PolygonBottomEPNS_5OutPtE@Base 6.2.1
 _ZN10ClipperLib13ReversePointsERSt6vectorINS_8IntPointESaIS1_EE@Base 6.2.1
 _ZN10ClipperLib13ReversePointsERSt6vectorIS0_INS_8IntPointESaIS1_EESaIS3_EE@Base 6.2.1
 _ZN10ClipperLib14IntersectPointERNS_5TEdgeES1_RNS_8IntPointEb@Base 6.2.1
 _ZN10ClipperLib14IsIntermediateEPNS_5TEdgeEx@Base 6.2.1
 _ZN10ClipperLib14OffsetPolygonsERKSt6vectorIS0_INS_8IntPointESaIS1_EESaIS3_EERS5_dNS_8JoinTypeEd@Base 6.2.1
 _ZN10ClipperLib14PointInPolygonERKNS_8IntPointEPNS_5OutPtEb@Base 6.2.1
 _ZN10ClipperLib15GetLowermostRecEPNS_6OutRecES1_@Base 6.2.1
 _ZN10ClipperLib15Process1Before2ERNS_13IntersectNodeES1_@Base 6.2.1
 _ZN10ClipperLib15SwapPolyIndexesERNS_5TEdgeES1_@Base 6.2.1
 _ZN10ClipperLib16clipperExceptionC1EPKc@Base 6.2.1
 _ZN10ClipperLib16clipperExceptionC2EPKc@Base 6.2.1
 _ZN10ClipperLib16clipperExceptionD0Ev@Base 6.2.1
 _ZN10ClipperLib16clipperExceptionD1Ev@Base 6.2.1
 _ZN10ClipperLib16clipperExceptionD2Ev@Base 6.2.1
 _ZN10ClipperLib17E2InsertsBeforeE1ERNS_5TEdgeES1_@Base 6.2.1
 _ZN10ClipperLib17FindAppendLinkEndEPNS_6OutRecE@Base 6.2.1
 _ZN10ClipperLib17GetOverlapSegmentENS_8IntPointES0_S0_S0_RS0_S1_@Base 6.2.1
 (arch=powerpc s390)_ZN10ClipperLib17PolyOffsetBuilder8DoSquareEd@Base 6.4.0
 _ZN10ClipperLib17PolyOffsetBuilderC1ERKSt6vectorIS1_INS_8IntPointESaIS2_EESaIS4_EERS6_dNS_8JoinTypeEd@Base 6.2.1
 _ZN10ClipperLib17PolyOffsetBuilderC2ERKSt6vectorIS1_INS_8IntPointESaIS2_EESaIS4_EERS6_dNS_8JoinTypeEd@Base 6.2.1
 _ZN10ClipperLib18GetNextNonDupOutPtEPNS_5OutPtERS1_@Base 6.2.1
 _ZN10ClipperLib18GetPrevNonDupOutPtEPNS_5OutPtERS1_@Base 6.2.1
 _ZN10ClipperLib18ReversePolyPtLinksERNS_5OutPtE@Base 6.2.1
 _ZN10ClipperLib18SwapIntersectNodesERNS_13IntersectNodeES1_@Base 6.2.1
 _ZN10ClipperLib19InsertPolyPtBetweenEPNS_5OutPtES1_NS_8IntPointE@Base 6.2.1
 _ZN10ClipperLib21Pt3IsBetweenPt1AndPt2ENS_8IntPointES0_S0_@Base 6.2.1
 _ZN10ClipperLib4AreaERKSt6vectorINS_8IntPointESaIS1_EE@Base 6.2.1
 _ZN10ClipperLib4TopXENS_8IntPointES0_x@Base 6.2.1
 _ZN10ClipperLib4TopXERNS_5TEdgeEx@Base 6.2.1
 _ZN10ClipperLib5GetDxENS_8IntPointES0_@Base 6.2.1
 _ZN10ClipperLib5SetDxERNS_5TEdgeE@Base 6.2.1
 (arch=armel armhf i386 kfreebsd-i386 mips mipsel)_ZN10ClipperLib6Int1286NegateERS0_@Base 6.4.0
 _ZN10ClipperLib7Clipper10ClearJoinsEv@Base 6.2.1
 _ZN10ClipperLib7Clipper11AddHorzJoinEPNS_5TEdgeEi@Base 6.2.1
 _ZN10ClipperLib7Clipper11BuildResultERSt6vectorIS1_INS_8IntPointESaIS2_EESaIS4_EE@Base 6.2.1
 _ZN10ClipperLib7Clipper11DoBothEdgesEPNS_5TEdgeES2_RKNS_8IntPointE@Base 6.2.1
 _ZN10ClipperLib7Clipper11PopScanbeamEv@Base 6.2.1
 _ZN10ClipperLib7Clipper12AddEdgeToSELEPNS_5TEdgeE@Base 6.2.1
 _ZN10ClipperLib7Clipper12CopyAELToSELEv@Base 6.2.1
 _ZN10ClipperLib7Clipper12CreateOutRecEv@Base 6.2.1
 _ZN10ClipperLib7Clipper12SetHoleStateEPNS_5TEdgeEPNS_6OutRecE@Base 6.2.1
 _ZN10ClipperLib7Clipper13AppendPolygonEPNS_5TEdgeES2_@Base 6.2.1
 _ZN10ClipperLib7Clipper13BuildResultExERSt6vectorINS_9ExPolygonESaIS2_EE@Base 6.2.1
 _ZN10ClipperLib7Clipper13DeleteFromAELEPNS_5TEdgeE@Base 6.2.1
 _ZN10ClipperLib7Clipper13DeleteFromSELEPNS_5TEdgeE@Base 6.2.1
 (arch=armel armhf i386 kfreebsd-i386 mips mipsel powerpc sparc)_ZN10ClipperLib7Clipper13DisposeOutRecEjb@Base 6.4.0
 (arch=amd64 ia64 kfreebsd-amd64 s390 s390x)_ZN10ClipperLib7Clipper13DisposeOutRecEmb@Base 6.4.0
 _ZN10ClipperLib7Clipper14ClearHorzJoinsEv@Base 6.2.1
 _ZN10ClipperLib7Clipper14FixHoleLinkageEPNS_6OutRecE@Base 6.2.1
 _ZN10ClipperLib7Clipper14InsertScanbeamEx@Base 6.2.1
 _ZN10ClipperLib7Clipper14IntersectEdgesEPNS_5TEdgeES2_RKNS_8IntPointENS_17IntersectProtectsE@Base 6.2.1
 _ZN10ClipperLib7Clipper15AddLocalMaxPolyEPNS_5TEdgeES2_RKNS_8IntPointE@Base 6.2.1
 _ZN10ClipperLib7Clipper15AddLocalMinPolyEPNS_5TEdgeES2_RKNS_8IntPointE@Base 6.2.1
 _ZN10ClipperLib7Clipper15ExecuteInternalEb@Base 6.2.1
 _ZN10ClipperLib7Clipper15FixupOutPolygonERNS_6OutRecE@Base 6.2.1
 _ZN10ClipperLib7Clipper15JoinCommonEdgesEb@Base 6.2.1
 _ZN10ClipperLib7Clipper15SetWindingCountERNS_5TEdgeE@Base 6.2.1
 _ZN10ClipperLib7Clipper16AddIntersectNodeEPNS_5TEdgeES2_RKNS_8IntPointE@Base 6.2.1
 _ZN10ClipperLib7Clipper17DisposeAllPolyPtsEv@Base 6.2.1
 _ZN10ClipperLib7Clipper17InsertEdgeIntoAELEPNS_5TEdgeE@Base 6.2.1
 _ZN10ClipperLib7Clipper17ProcessHorizontalEPNS_5TEdgeE@Base 6.2.1
 _ZN10ClipperLib7Clipper17UpdateEdgeIntoAELERPNS_5TEdgeE@Base 6.2.1
 _ZN10ClipperLib7Clipper18BuildIntersectListExx@Base 6.2.1
 _ZN10ClipperLib7Clipper18CheckHoleLinkages1EPNS_6OutRecES2_@Base 6.2.1
 _ZN10ClipperLib7Clipper18CheckHoleLinkages2EPNS_6OutRecES2_@Base 6.2.1
 _ZN10ClipperLib7Clipper18FixupIntersectionsEv@Base 6.2.1
 _ZN10ClipperLib7Clipper18ProcessHorizontalsEv@Base 6.2.1
 _ZN10ClipperLib7Clipper18SwapPositionsInAELEPNS_5TEdgeES2_@Base 6.2.1
 _ZN10ClipperLib7Clipper18SwapPositionsInSELEPNS_5TEdgeES2_@Base 6.2.1
 _ZN10ClipperLib7Clipper19DisposeScanbeamListEv@Base 6.2.1
 _ZN10ClipperLib7Clipper20ProcessIntersectListEv@Base 6.2.1
 _ZN10ClipperLib7Clipper20ProcessIntersectionsExx@Base 6.2.1
 _ZN10ClipperLib7Clipper21DisposeIntersectNodesEv@Base 6.2.1
 _ZN10ClipperLib7Clipper24InsertLocalMinimaIntoAELEx@Base 6.2.1
 _ZN10ClipperLib7Clipper27ProcessEdgesAtTopOfScanbeamEx@Base 6.2.1
 _ZN10ClipperLib7Clipper5ClearEv@Base 6.2.1
 _ZN10ClipperLib7Clipper5ResetEv@Base 6.2.1
 _ZN10ClipperLib7Clipper7AddJoinEPNS_5TEdgeES2_ii@Base 6.2.1
 _ZN10ClipperLib7Clipper7DoEdge1EPNS_5TEdgeES2_RKNS_8IntPointE@Base 6.2.1
 _ZN10ClipperLib7Clipper7DoEdge2EPNS_5TEdgeES2_RKNS_8IntPointE@Base 6.2.1
 _ZN10ClipperLib7Clipper7ExecuteENS_8ClipTypeERSt6vectorINS_9ExPolygonESaIS3_EENS_12PolyFillTypeES7_@Base 6.2.1
 _ZN10ClipperLib7Clipper7ExecuteENS_8ClipTypeERSt6vectorIS2_INS_8IntPointESaIS3_EESaIS5_EENS_12PolyFillTypeES9_@Base 6.2.1
 _ZN10ClipperLib7Clipper8AddOutPtEPNS_5TEdgeES2_RKNS_8IntPointE@Base 6.2.1
 _ZN10ClipperLib7Clipper8DoMaximaEPNS_5TEdgeEx@Base 6.2.1
 _ZN10ClipperLib7Clipper9IsTopHorzEx@Base 6.2.1
 _ZN10ClipperLib7ClipperC1Ev@Base 6.2.1
 _ZN10ClipperLib7ClipperC2Ev@Base 6.2.1
 _ZN10ClipperLib7ClipperD0Ev@Base 6.2.1
 _ZN10ClipperLib7ClipperD1Ev@Base 6.2.1
 _ZN10ClipperLib7ClipperD2Ev@Base 6.2.1
 _ZN10ClipperLib8BuildArcERKNS_8IntPointEddd@Base 6.2.1
 _ZN10ClipperLib8InitEdgeEPNS_5TEdgeES1_S1_RKNS_8IntPointENS_8PolyTypeE@Base 6.2.1
 _ZN10ClipperLib8IsMaximaEPNS_5TEdgeEx@Base 6.2.1
 _ZN10ClipperLib8IsMinimaEPNS_5TEdgeE@Base 6.2.1
 _ZN10ClipperLib8PolySortEPNS_6OutRecES1_@Base 6.2.1
 _ZN10ClipperLib9ExPolygonC1ERKS0_@Base 6.2.1
 _ZN10ClipperLib9ExPolygonC2ERKS0_@Base 6.2.1
 _ZN10ClipperLib9ExPolygonD1Ev@Base 6.2.1
 _ZN10ClipperLib9ExPolygonD2Ev@Base 6.2.1
 _ZN10ClipperLib9SwapSidesERNS_5TEdgeES1_@Base 6.2.1
 _ZN10ClipperLib9TestRangeERKSt6vectorINS_8IntPointESaIS1_EE@Base 6.2.1
 _ZN10ClipperLiblsERSoRNS_8IntPointE@Base 6.2.1
 _ZN10ClipperLiblsERSoRSt6vectorINS_8IntPointESaIS2_EE@Base 6.2.1
 _ZN10ClipperLiblsERSoRSt6vectorIS1_INS_8IntPointESaIS2_EESaIS4_EE@Base 6.2.1
 _ZN11KmlRenderer10renderLineEP8imageObjP8shapeObjP14strokeStyleObj@Base 6.4.0
 _ZN11KmlRenderer10startShapeEP8imageObjP8shapeObj@Base 6.4.0
 _ZN11KmlRenderer11createImageEiiP15outputFormatObjP8colorObj@Base 6.4.0
 _ZN11KmlRenderer12getAliasNameEP8layerObjPcPKc@Base 6.4.0
 _ZN11KmlRenderer12getLayerNameEP8layerObj@Base 6.4.0
 _ZN11KmlRenderer12processLayerEP8layerObjP15outputFormatObj@Base 6.4.0
 _ZN11KmlRenderer12renderGlyphsEP8imageObjddP13labelStyleObjPc@Base 6.4.0
 _ZN11KmlRenderer12renderSymbolEP8imageObjddP9symbolObjP14symbolStyleObj@Base 6.4.0
 _ZN11KmlRenderer13addCoordsNodeEP8_xmlNodeP8pointObji@Base 6.4.0
 _ZN11KmlRenderer13closeNewLayerEP8imageObjP8layerObj@Base 6.4.0
 _ZN11KmlRenderer13renderPolygonEP8imageObjP8shapeObjP8colorObj@Base 6.4.0
 _ZN11KmlRenderer13startNewLayerEP8imageObjP8layerObj@Base 6.4.0
 _ZN11KmlRenderer14flushPlacemarkEv@Base 6.4.0
 _ZN11KmlRenderer15checkProjectionEP6mapObj@Base 6.4.0
 _ZN11KmlRenderer15createIconImageEPcP9symbolObjP14symbolStyleObj@Base 6.4.0
 _ZN11KmlRenderer15lookupSymbolUrlEP8imageObjP9symbolObjP14symbolStyleObj@Base 6.4.0
 _ZN11KmlRenderer17getGeomParentNodeEPKc@Base 6.4.0
 _ZN11KmlRenderer17mergeRasterBufferEP8imageObjP15rasterBufferObj@Base 6.4.0
 _ZN11KmlRenderer18addLineStyleToListEP14strokeStyleObj@Base 6.4.0
 _ZN11KmlRenderer18renderPixmapSymbolEP8imageObjddP9symbolObjP14symbolStyleObj@Base 6.4.0
 _ZN11KmlRenderer18renderVectorSymbolEP8imageObjddP9symbolObjP14symbolStyleObj@Base 6.4.0
 _ZN11KmlRenderer19createPlacemarkNodeEP8_xmlNodePc@Base 6.4.0
 _ZN11KmlRenderer19renderEllipseSymbolEP8imageObjddP9symbolObjP14symbolStyleObj@Base 6.4.0
 _ZN11KmlRenderer20lookupPlacemarkStyleEv@Base 6.4.0
 _ZN11KmlRenderer20renderTruetypeSymbolEP8imageObjddP9symbolObjP14symbolStyleObj@Base 6.4.0
 _ZN11KmlRenderer20setupRenderingParamsEP12hashTableObj@Base 6.4.0
 _ZN11KmlRenderer21createDescriptionNodeEP8shapeObj@Base 6.4.0
 _ZN11KmlRenderer23createGroundOverlayNodeEP8_xmlNodePcP8layerObj@Base 6.4.0
 _ZN11KmlRenderer29addAddRenderingSpecificationsEP8_xmlNode@Base 6.4.0
 _ZN11KmlRenderer8endShapeEP8imageObjP8shapeObj@Base 6.4.0
 _ZN11KmlRenderer9saveImageEP8imageObjP8_IO_FILEP15outputFormatObj@Base 6.4.0
 _ZN11KmlRendererC1EiiP15outputFormatObjP8colorObj@Base 6.4.0
 _ZN11KmlRendererC2EiiP15outputFormatObjP8colorObj@Base 6.4.0
 _ZN11KmlRendererD0Ev@Base 6.4.0
 _ZN11KmlRendererD1Ev@Base 6.4.0
 _ZN11KmlRendererD2Ev@Base 6.4.0
 _ZN12line_adaptor6vertexEPdS0_@Base 6.2.1
 _ZN12line_adaptorD0Ev@Base 6.2.1
 _ZN12line_adaptorD1Ev@Base 6.2.1
 _ZN12line_adaptorD2Ev@Base 6.2.1
 _ZN15polygon_adaptor6vertexEPdS0_@Base 6.2.1
 _ZN15polygon_adaptorD0Ev@Base 6.2.1
 _ZN15polygon_adaptorD1Ev@Base 6.2.1
 _ZN15polygon_adaptorD2Ev@Base 6.2.1
 (optional=templinst|arch=ia64 powerpc s390 s390x sparc)_ZN9mapserver10conv_curveINS_20path_storage_integerIiLj6EEENS_6curve3ENS_6curve4EE6vertexEPdS6_@Base 6.4.0
 (optional=templinst|arch=ia64 powerpc s390 s390x sparc)_ZN9mapserver10conv_curveINS_20path_storage_integerIiLj6EEENS_6curve3ENS_6curve4EED1Ev@Base 6.4.0
 (optional=templinst|arch=ia64 powerpc s390 s390x sparc)_ZN9mapserver10conv_curveINS_20path_storage_integerIiLj6EEENS_6curve3ENS_6curve4EED2Ev@Base 6.4.0
 (optional=templinst|arch=ia64 powerpc s390 s390x sparc)_ZN9mapserver10conv_curveINS_20path_storage_integerIsLj6EEENS_6curve3ENS_6curve4EE6vertexEPdS6_@Base 6.4.0
 (optional=templinst|arch=ia64 powerpc s390 s390x sparc)_ZN9mapserver10conv_curveINS_20path_storage_integerIsLj6EEENS_6curve3ENS_6curve4EED1Ev@Base 6.4.0
 (optional=templinst|arch=ia64 powerpc s390 s390x sparc)_ZN9mapserver10conv_curveINS_20path_storage_integerIsLj6EEENS_6curve3ENS_6curve4EED2Ev@Base 6.4.0
 (optional=templinst|arch=ia64 powerpc s390 s390x sparc)_ZN9mapserver10conv_curveINS_31serialized_integer_path_adaptorIsLj6EEENS_6curve3ENS_6curve4EE6vertexEPdS6_@Base 6.4.0
 _ZN9mapserver10curve3_div16recursive_bezierEddddddj@Base 6.2.1
 _ZN9mapserver10curve3_div4initEdddddd@Base 6.2.1
 _ZN9mapserver10curve3_div6bezierEdddddd@Base 6.2.1
 _ZN9mapserver10curve3_inc19approximation_scaleEd@Base 6.2.1
 _ZN9mapserver10curve3_inc4initEdddddd@Base 6.2.1
 _ZN9mapserver10curve3_inc6rewindEj@Base 6.2.1
 _ZN9mapserver10curve3_inc6vertexEPdS1_@Base 6.2.1
 _ZN9mapserver10curve4_div16recursive_bezierEddddddddj@Base 6.2.1
 _ZN9mapserver10curve4_div4initEdddddddd@Base 6.2.1
 _ZN9mapserver10curve4_div6bezierEdddddddd@Base 6.2.1
 _ZN9mapserver10curve4_inc19approximation_scaleEd@Base 6.2.1
 _ZN9mapserver10curve4_inc4initEdddddddd@Base 6.2.1
 _ZN9mapserver10curve4_inc6rewindEj@Base 6.2.1
 _ZN9mapserver10curve4_inc6vertexEPdS1_@Base 6.2.1
 (arch=!ia64 !powerpc !s390 !s390x !sparc)_ZN9mapserver10font_cache9signatureEPKc@Base 6.4.0
 _ZN9mapserver10mcs11_propE@Base 6.2.1
 _ZN9mapserver10mcs12_propE@Base 6.2.1
 _ZN9mapserver10mcs13_propE@Base 6.2.1
 _ZN9mapserver10vcgen_dash10add_vertexEddj@Base 6.2.1
 _ZN9mapserver10vcgen_dash10dash_startEd@Base 6.2.1
 _ZN9mapserver10vcgen_dash10remove_allEv@Base 6.2.1
 _ZN9mapserver10vcgen_dash15calc_dash_startEd@Base 6.2.1
 _ZN9mapserver10vcgen_dash17remove_all_dashesEv@Base 6.2.1
 _ZN9mapserver10vcgen_dash6rewindEj@Base 6.2.1
 _ZN9mapserver10vcgen_dash6vertexEPdS1_@Base 6.2.1
 _ZN9mapserver10vcgen_dash8add_dashEdd@Base 6.2.1
 _ZN9mapserver10vcgen_dashC1Ev@Base 6.2.1
 _ZN9mapserver10vcgen_dashC2Ev@Base 6.2.1
 (optional=templinst)_ZN9mapserver11math_strokeINS_11pod_bvectorINS_10point_baseIdEELj6EEEE10calc_miterERS4_RKNS_11vertex_distES9_S9_ddddNS_11line_join_eEdd@Base 6.2.1
 (optional=templinst)_ZN9mapserver11math_strokeINS_11pod_bvectorINS_10point_baseIdEELj6EEEE8calc_arcERS4_dddddd@Base 6.2.1
 (optional=templinst)_ZN9mapserver11math_strokeINS_11pod_bvectorINS_10point_baseIdEELj6EEEE8calc_capERS4_RKNS_11vertex_distES9_d@Base 6.2.1
 (optional=templinst)_ZN9mapserver11math_strokeINS_11pod_bvectorINS_10point_baseIdEELj6EEEE9calc_joinERS4_RKNS_11vertex_distES9_S9_dd@Base 6.2.1
 (optional=templinst|arch=ia64 powerpc s390 s390x sparc)_ZN9mapserver11pod_bvectorIN10ClipperLib8IntPointELj8EE14allocate_blockEj@Base 6.4.0
 (optional=templinst|arch=!powerpc !s390 !s390x)_ZN9mapserver11pod_bvectorIN10ClipperLib8IntPointELj8EED1Ev@Base 6.2.1
 (optional=templinst|arch=!powerpc !s390 !s390x)_ZN9mapserver11pod_bvectorIN10ClipperLib8IntPointELj8EED2Ev@Base 6.2.1
 (optional=templinst|arch=ia64 powerpc s390 s390x sparc)_ZN9mapserver11pod_bvectorINS_10point_baseIdEELj6EE14allocate_blockEj@Base 6.4.0
 (optional=templinst|arch=!powerpc !s390 !s390x)_ZN9mapserver11pod_bvectorINS_10point_baseIdEELj6EED1Ev@Base 6.2.1
 (optional=templinst|arch=!powerpc !s390 !s390x)_ZN9mapserver11pod_bvectorINS_10point_baseIdEELj6EED2Ev@Base 6.2.1
 (optional=templinst|arch=ia64 powerpc s390 s390x sparc)_ZN9mapserver11pod_bvectorINS_11vertex_distELj6EE14allocate_blockEj@Base 6.4.0
 (optional=templinst|arch=!ia64 !powerpc !s390 !s390x !sparc)_ZN9mapserver11pod_bvectorINS_11vertex_distELj6EED1Ev@Base 6.2.1
 (optional=templinst|arch=!ia64 !powerpc !s390 !s390x !sparc)_ZN9mapserver11pod_bvectorINS_11vertex_distELj6EED2Ev@Base 6.2.1
 (optional=templinst|arch=ia64 powerpc s390 s390x sparc)_ZN9mapserver11pod_bvectorINS_14line_aa_vertexELj6EE14allocate_blockEj@Base 6.4.0
 (optional=templinst|arch=!ia64 !powerpc !s390 !s390x !sparc)_ZN9mapserver11pod_bvectorINS_14line_aa_vertexELj6EED1Ev@Base 6.2.1
 (optional=templinst|arch=!ia64 !powerpc !s390 !s390x !sparc)_ZN9mapserver11pod_bvectorINS_14line_aa_vertexELj6EED2Ev@Base 6.2.1
 (optional=templinst|arch=ia64 powerpc s390 s390x sparc)_ZN9mapserver11pod_bvectorINS_14vertex_integerIiLj6EEELj6EE14allocate_blockEj@Base 6.4.0
 (optional=templinst|arch=!ia64 !powerpc !s390 !s390x !sparc)_ZN9mapserver11pod_bvectorINS_14vertex_integerIiLj6EEELj6EED1Ev@Base 6.2.1
 (optional=templinst|arch=!ia64 !powerpc !s390 !s390x !sparc)_ZN9mapserver11pod_bvectorINS_14vertex_integerIiLj6EEELj6EED2Ev@Base 6.2.1
 (optional=templinst|arch=ia64 powerpc s390 s390x sparc)_ZN9mapserver11pod_bvectorINS_14vertex_integerIsLj6EEELj6EE14allocate_blockEj@Base 6.4.0
 (optional=templinst|arch=!ia64 !powerpc !s390 !s390x !sparc)_ZN9mapserver11pod_bvectorINS_14vertex_integerIsLj6EEELj6EED1Ev@Base 6.2.1
 (optional=templinst|arch=!ia64 !powerpc !s390 !s390x !sparc)_ZN9mapserver11pod_bvectorINS_14vertex_integerIsLj6EEELj6EED2Ev@Base 6.2.1
 (optional=templinst|arch=ia64 powerpc s390 s390x sparc)_ZN9mapserver11pod_bvectorINS_19scanline_storage_aaIhE13scanline_dataELj8EE14allocate_blockEj@Base 6.4.0
 (optional=templinst|arch=ia64 powerpc s390 s390x sparc)_ZN9mapserver11pod_bvectorINS_19scanline_storage_aaIhE9span_dataELj10EE14allocate_blockEj@Base 6.4.0
 (optional=templinst|arch=ia64 powerpc s390 s390x sparc)_ZN9mapserver11pod_bvectorINS_20scanline_storage_bin13scanline_dataELj8EE14allocate_blockEj@Base 6.4.0
 (optional=templinst|arch=!ia64 !powerpc !s390 !s390x !sparc)_ZN9mapserver11pod_bvectorINS_20scanline_storage_bin13scanline_dataELj8EED1Ev@Base 6.2.1
 (optional=templinst|arch=!ia64 !powerpc !s390 !s390x !sparc)_ZN9mapserver11pod_bvectorINS_20scanline_storage_bin13scanline_dataELj8EED2Ev@Base 6.2.1
 (optional=templinst|arch=ia64 powerpc s390 s390x sparc)_ZN9mapserver11pod_bvectorINS_20scanline_storage_bin9span_dataELj10EE14allocate_blockEj@Base 6.4.0
 (optional=templinst|arch=!ia64 !powerpc !s390 !s390x !sparc)_ZN9mapserver11pod_bvectorINS_20scanline_storage_bin9span_dataELj10EED1Ev@Base 6.2.1
 (optional=templinst|arch=!ia64 !powerpc !s390 !s390x !sparc)_ZN9mapserver11pod_bvectorINS_20scanline_storage_bin9span_dataELj10EED2Ev@Base 6.2.1
 (optional=templinst|arch=ia64 powerpc s390 s390x sparc)_ZN9mapserver11pod_bvectorINS_21scanline_cell_storageIhE10extra_spanELj6EE14allocate_blockEj@Base 6.4.0
 (optional=templinst|arch=ia64 powerpc s390 s390x sparc)_ZN9mapserver11pod_bvectorIhLj12EE14allocate_blockEj@Base 6.4.0
 (optional=templinst)_ZN9mapserver11qsort_cellsINS_7cell_aaEEEvPPT_j@Base 6.2.1
 _ZN9mapserver11scanline_u8D1Ev@Base 6.2.1
 _ZN9mapserver11scanline_u8D2Ev@Base 6.2.1
 (optional=templinst)_ZN9mapserver12conv_clipperI15polygon_adaptorNS_11conv_strokeINS_9conv_dashINS_9path_baseINS_20vertex_block_storageIdLj8ELj256EEEEENS_12null_markersEEES8_EEE11end_contourERSt6vectorISC_IN10ClipperLib8IntPointESaISE_EESaISG_EE@Base 6.2.1
 (optional=templinst|arch=s390x)_ZN9mapserver12conv_clipperI15polygon_adaptorNS_11conv_strokeINS_9conv_dashINS_9path_baseINS_20vertex_block_storageIdLj8ELj256EEEEENS_12null_markersEEES8_EEE11next_vertexEPdSC_@Base 6.4.0
 (optional=templinst|arch=ia64 powerpc s390 s390x sparc)_ZN9mapserver12conv_clipperI15polygon_adaptorNS_11conv_strokeINS_9conv_dashINS_9path_baseINS_20vertex_block_storageIdLj8ELj256EEEEENS_12null_markersEEES8_EEE3addIPS1_EEvRT_RSt6vectorISG_IN10ClipperLib8IntPointESaISI_EESaISK_EE@Base 6.4.0
 (optional=templinst|arch=ia64 powerpc s390 s390x sparc)_ZN9mapserver12conv_clipperI15polygon_adaptorNS_11conv_strokeINS_9conv_dashINS_9path_baseINS_20vertex_block_storageIdLj8ELj256EEEEENS_12null_markersEEES8_EEE3addIPSA_EEvRT_RSt6vectorISG_IN10ClipperLib8IntPointESaISI_EESaISK_EE@Base 6.4.0
 (optional=templinst)_ZN9mapserver12conv_clipperI15polygon_adaptorNS_11conv_strokeINS_9conv_dashINS_9path_baseINS_20vertex_block_storageIdLj8ELj256EEEEENS_12null_markersEEES8_EEE6rewindEj@Base 6.2.1
#MISSING: 6.4.0# (optional=templinst)_ZN9mapserver12conv_clipperI15polygon_adaptorNS_11conv_strokeINS_9conv_dashINS_9path_baseINS_20vertex_block_storageIdLj8ELj256EEEEENS_12null_markersEEES8_EEE6vertexEPdSC_@Base 6.2.1
 (optional=templinst|arch=!ia64 !powerpc !s390 !s390x !sparc)_ZN9mapserver12conv_clipperI15polygon_adaptorNS_11conv_strokeINS_9conv_dashINS_9path_baseINS_20vertex_block_storageIdLj8ELj256EEEEENS_12null_markersEEES8_EEED1Ev@Base 6.2.1
 (optional=templinst|arch=!ia64 !powerpc !s390 !s390x !sparc)_ZN9mapserver12conv_clipperI15polygon_adaptorNS_11conv_strokeINS_9conv_dashINS_9path_baseINS_20vertex_block_storageIdLj8ELj256EEEEENS_12null_markersEEES8_EEED2Ev@Base 6.2.1
 (optional=templinst)_ZN9mapserver12conv_clipperI15polygon_adaptorNS_11conv_strokeINS_9path_baseINS_20vertex_block_storageIdLj8ELj256EEEEENS_12null_markersEEEE11end_contourERSt6vectorISA_IN10ClipperLib8IntPointESaISC_EESaISE_EE@Base 6.2.1
 (optional=templinst|arch=sparc)_ZN9mapserver12conv_clipperI15polygon_adaptorNS_11conv_strokeINS_9path_baseINS_20vertex_block_storageIdLj8ELj256EEEEENS_12null_markersEEEE11next_vertexEPdSA_@Base 6.4.0
 (optional=templinst|arch=ia64 powerpc s390 s390x sparc)_ZN9mapserver12conv_clipperI15polygon_adaptorNS_11conv_strokeINS_9path_baseINS_20vertex_block_storageIdLj8ELj256EEEEENS_12null_markersEEEE3addIPS1_EEvRT_RSt6vectorISE_IN10ClipperLib8IntPointESaISG_EESaISI_EE@Base 6.4.0
 (optional=templinst|arch=ia64 powerpc s390 s390x sparc)_ZN9mapserver12conv_clipperI15polygon_adaptorNS_11conv_strokeINS_9path_baseINS_20vertex_block_storageIdLj8ELj256EEEEENS_12null_markersEEEE3addIPS8_EEvRT_RSt6vectorISE_IN10ClipperLib8IntPointESaISG_EESaISI_EE@Base 6.4.0
 (optional=templinst)_ZN9mapserver12conv_clipperI15polygon_adaptorNS_11conv_strokeINS_9path_baseINS_20vertex_block_storageIdLj8ELj256EEEEENS_12null_markersEEEE6rewindEj@Base 6.2.1
#MISSING: 6.4.0# (optional=templinst)_ZN9mapserver12conv_clipperI15polygon_adaptorNS_11conv_strokeINS_9path_baseINS_20vertex_block_storageIdLj8ELj256EEEEENS_12null_markersEEEE6vertexEPdSA_@Base 6.2.1
 (optional=templinst)_ZN9mapserver12conv_clipperI15polygon_adaptorNS_11conv_strokeINS_9path_baseINS_20vertex_block_storageIdLj8ELj256EEEEENS_12null_markersEEEED1Ev@Base 6.2.1
 (optional=templinst)_ZN9mapserver12conv_clipperI15polygon_adaptorNS_11conv_strokeINS_9path_baseINS_20vertex_block_storageIdLj8ELj256EEEEENS_12null_markersEEEED2Ev@Base 6.2.1
#MISSING: 6.4.0# _ZN9mapserver12g_sqrt_tableE@Base 6.2.1
 _ZN9mapserver12gse7x11_boldE@Base 6.2.1
 _ZN9mapserver12gse7x15_boldE@Base 6.2.1
 _ZN9mapserver12gse8x16_boldE@Base 6.2.1
 _ZN9mapserver12mcs5x10_monoE@Base 6.2.1
 _ZN9mapserver12mcs5x11_monoE@Base 6.2.1
 _ZN9mapserver12mcs6x10_monoE@Base 6.2.1
 _ZN9mapserver12mcs6x11_monoE@Base 6.2.1
 (optional=templinst|arch=!amd64 !kfreebsd-amd64)_ZN9mapserver12shorten_pathINS_15vertex_sequenceINS_11vertex_distELj6EEEEEvRT_dj@Base 6.4.0
 _ZN9mapserver12trans_affine12parl_to_parlEPKdS2_@Base 6.2.1
 _ZN9mapserver12trans_affine12parl_to_rectEPKddddd@Base 6.2.1
 _ZN9mapserver12trans_affine12rect_to_parlEddddPKd@Base 6.2.1
 _ZN9mapserver12trans_affine5resetEv@Base 6.2.1
 _ZN9mapserver12trans_affine6flip_xEv@Base 6.2.1
 _ZN9mapserver12trans_affine6flip_yEv@Base 6.2.1
 _ZN9mapserver12trans_affine6invertEv@Base 6.2.1
 _ZN9mapserver12trans_affine8multiplyERKS0_@Base 6.2.1
 _ZN9mapserver12vcgen_stroke10add_vertexEddj@Base 6.2.1
 _ZN9mapserver12vcgen_stroke10remove_allEv@Base 6.2.1
 _ZN9mapserver12vcgen_stroke6rewindEj@Base 6.2.1
 _ZN9mapserver12vcgen_stroke6vertexEPdS1_@Base 6.2.1
 _ZN9mapserver12vcgen_strokeC1Ev@Base 6.2.1
 _ZN9mapserver12vcgen_strokeC2Ev@Base 6.2.1
 (arch=ia64 powerpc s390 s390x sparc)_ZN9mapserver12vcgen_strokeD1Ev@Base 6.4.0
 (arch=ia64 powerpc s390 s390x sparc)_ZN9mapserver12vcgen_strokeD2Ev@Base 6.4.0
 (optional=templinst)_ZN9mapserver13obj_allocatorINS_10font_cacheEE10deallocateEPS1_@Base 6.2.1
 (optional=templinst|arch=mips mipsel)_ZN9mapserver13obj_allocatorINS_10font_cacheEE8allocateEv@Base 6.4.0
 (optional=templinst)_ZN9mapserver13renderer_baseINS_23pixfmt_alpha_blend_rgbaINS_16blender_rgba_preINS_5rgba8ENS_10order_bgraEEENS_12row_accessorIhEEjEEE10blend_fromIS8_EEvRKT_PKNS_9rect_baseIiEEiih@Base 6.2.1
 _ZN9mapserver13vcgen_contour10add_vertexEddj@Base 6.2.1
 _ZN9mapserver13vcgen_contour10remove_allEv@Base 6.2.1
 _ZN9mapserver13vcgen_contour6rewindEj@Base 6.2.1
 _ZN9mapserver13vcgen_contour6vertexEPdS1_@Base 6.2.1
 _ZN9mapserver13vcgen_contourC1Ev@Base 6.2.1
 _ZN9mapserver13vcgen_contourC2Ev@Base 6.2.1
 _ZN9mapserver14verdana12_boldE@Base 6.2.1
 _ZN9mapserver14verdana13_boldE@Base 6.2.1
 _ZN9mapserver14verdana14_boldE@Base 6.2.1
 _ZN9mapserver14verdana16_boldE@Base 6.2.1
 _ZN9mapserver14verdana17_boldE@Base 6.2.1
 _ZN9mapserver14verdana18_boldE@Base 6.2.1
 _ZN9mapserver15block_allocator8allocateEjj@Base 6.2.1
#MISSING: 6.4.0# (optional=templinst)_ZN9mapserver15clip_move_pointIdEEbT_S1_S1_S1_RKNS_9rect_baseIS1_EEPS1_S6_j@Base 6.2.1
 (optional=templinst)_ZN9mapserver15clip_move_pointIiEEbT_S1_S1_S1_RKNS_9rect_baseIS1_EEPS1_S6_j@Base 6.2.1
 (arch=ia64 sparc)_ZN9mapserver15font_cache_poolD1Ev@Base 6.4.0
 (arch=ia64 sparc)_ZN9mapserver15font_cache_poolD2Ev@Base 6.4.0
 _ZN9mapserver15line_parameters19s_diagonal_quadrantE@Base 6.2.1
 _ZN9mapserver15line_parameters21s_orthogonal_quadrantE@Base 6.2.1
 (arch=armel armhf)_ZN9mapserver15line_parametersC1Eiiiii@Base 6.4.0
 (arch=armel armhf)_ZN9mapserver15line_parametersC2Eiiiii@Base 6.4.0
#MISSING: 6.4.0# _ZN9mapserver15line_profile_aa3setEdd@Base 6.2.1
#MISSING: 6.4.0# _ZN9mapserver15line_profile_aa5widthEd@Base 6.2.1
#MISSING: 6.4.0# _ZN9mapserver15line_profile_aa7profileEd@Base 6.2.1
 (optional=templinst)_ZN9mapserver15vertex_sequenceINS_11vertex_distELj6EE3addERKS1_@Base 6.2.1
 (optional=templinst)_ZN9mapserver15vertex_sequenceINS_11vertex_distELj6EE5closeEb@Base 6.2.1
 (optional=templinst|arch=ia64 powerpc s390 s390x sparc)_ZN9mapserver15vertex_sequenceINS_11vertex_distELj6EED1Ev@Base 6.4.0
 (optional=templinst|arch=ia64 powerpc s390 s390x sparc)_ZN9mapserver15vertex_sequenceINS_11vertex_distELj6EED2Ev@Base 6.4.0
 (optional=templinst)_ZN9mapserver15vertex_sequenceINS_14line_aa_vertexELj6EE3addERKS1_@Base 6.2.1
 (optional=templinst)_ZN9mapserver15vertex_sequenceINS_14line_aa_vertexELj6EE5closeEb@Base 6.2.1
#MISSING: 6.4.0# _ZN9mapserver16image_filter_lut11realloc_lutEd@Base 6.2.1
#MISSING: 6.4.0# _ZN9mapserver16image_filter_lut9normalizeEv@Base 6.2.1
 _ZN9mapserver16mcs7x12_mono_lowE@Base 6.2.1
 (optional=templinst|arch=!ia64 !powerpc !s390 !s390x !sparc)_ZN9mapserver16render_scanlinesINS_22rasterizer_scanline_aaINS_18rasterizer_sl_clipINS_12ras_conv_intEEEEENS_11scanline_p8ENS_26renderer_scanline_aa_solidINS_13renderer_baseINS_23pixfmt_alpha_blend_rgbaINS_16blender_rgba_preINS_5rgba8ENS_10order_bgraEEENS_12row_accessorIhEEjEEEEEEEEvRT_RT0_RT1_@Base 6.2.1
 (optional=templinst|arch=!ia64 !powerpc !s390 !s390x !sparc)_ZN9mapserver16render_scanlinesINS_22rasterizer_scanline_aaINS_18rasterizer_sl_clipINS_12ras_conv_intEEEEENS_11scanline_u8ENS_19scanline_storage_aaIhEEEEvRT_RT0_RT1_@Base 6.2.1
 (optional=templinst)_ZN9mapserver16render_scanlinesINS_22rasterizer_scanline_aaINS_18rasterizer_sl_clipINS_12ras_conv_intEEEEENS_11scanline_u8ENS_26renderer_scanline_aa_solidINS_13renderer_baseINS_23pixfmt_alpha_blend_rgbaINS_16blender_rgba_preINS_5rgba8ENS_10order_bgraEEENS_12row_accessorIhEEjEEEEEEEEvRT_RT0_RT1_@Base 6.2.1
 (optional=templinst)_ZN9mapserver16render_scanlinesINS_22rasterizer_scanline_aaINS_18rasterizer_sl_clipINS_12ras_conv_intEEEEENS_12scanline_binENS_20scanline_storage_binEEEvRT_RT0_RT1_@Base 6.2.1
 (optional=templinst|arch=powerpc s390)_ZN9mapserver17calc_polygon_areaINS_15vertex_sequenceINS_11vertex_distELj6EEEEEdRKT_@Base 6.4.0
#MISSING: 6.4.0# (optional=templinst)_ZN9mapserver17clip_line_segmentIdEEjPT_S2_S2_S2_RKNS_9rect_baseIS1_EE@Base 6.2.1
 (optional=templinst|arch=ia64 powerpc s390 s390x sparc)_ZN9mapserver17clip_line_segmentIiEEjPT_S2_S2_S2_RKNS_9rect_baseIS1_EE@Base 6.4.0
#MISSING: 6.4.0# _ZN9mapserver17g_elder_bit_tableE@Base 6.2.1
 _ZN9mapserver17mcs7x12_mono_highE@Base 6.2.1
 (optional=templinst)_ZN9mapserver18conv_adaptor_vcgenI12line_adaptorNS_10vcgen_dashENS_12null_markersEE6vertexEPdS5_@Base 6.2.1
 (optional=templinst|arch=ia64 powerpc s390 s390x sparc)_ZN9mapserver18conv_adaptor_vcgenI12line_adaptorNS_12vcgen_strokeENS_12null_markersEE6vertexEPdS5_@Base 6.4.0
 (optional=templinst|arch=ia64 powerpc s390 s390x sparc)_ZN9mapserver18conv_adaptor_vcgenINS_9conv_dashI12line_adaptorNS_12null_markersEEENS_12vcgen_strokeES3_E6vertexEPdS7_@Base 6.4.0
 (optional=templinst)_ZN9mapserver18conv_adaptor_vcgenINS_9conv_dashINS_9path_baseINS_20vertex_block_storageIdLj8ELj256EEEEENS_12null_markersEEENS_12vcgen_strokeES6_E6vertexEPdSA_@Base 6.2.1
 (optional=templinst)_ZN9mapserver18conv_adaptor_vcgenINS_9path_baseINS_20vertex_block_storageIdLj8ELj256EEEEENS_10vcgen_dashENS_12null_markersEE6vertexEPdS8_@Base 6.2.1
 (optional=templinst)_ZN9mapserver18conv_adaptor_vcgenINS_9path_baseINS_20vertex_block_storageIdLj8ELj256EEEEENS_12vcgen_strokeENS_12null_markersEE6vertexEPdS8_@Base 6.2.1
 (optional=templinst|arch=ia64 powerpc s390 s390x sparc)_ZN9mapserver18conv_adaptor_vcgenINS_9path_baseINS_20vertex_block_storageIdLj8ELj256EEEEENS_13vcgen_contourENS_12null_markersEE6vertexEPdS8_@Base 6.4.0
 (optional=templinst)_ZN9mapserver18font_cache_managerINS_26font_engine_freetype_int16EE5glyphEj@Base 6.2.1
 (optional=templinst|arch=ia64 powerpc s390 s390x sparc)_ZN9mapserver18line_image_patternINS_28pattern_filter_bilinear_rgbaINS_5rgba8EEEE6createINS_23pixfmt_alpha_blend_rgbaINS_16blender_rgba_preIS2_NS_10order_bgraEEENS_12row_accessorIhEEjEEEEvRKT_@Base 6.4.0
 (optional=templinst|arch=!ia64 !powerpc !s390 !s390x !sparc)_ZN9mapserver18line_image_patternINS_28pattern_filter_bilinear_rgbaINS_5rgba8EEEED1Ev@Base 6.2.1
 (optional=templinst|arch=!ia64 !powerpc !s390 !s390x !sparc)_ZN9mapserver18line_image_patternINS_28pattern_filter_bilinear_rgbaINS_5rgba8EEEED2Ev@Base 6.2.1
 (optional=templinst)_ZN9mapserver18rasterizer_sl_clipINS_12ras_conv_intEE7line_toINS_19rasterizer_cells_aaINS_7cell_aaEEEEEvRT_ii@Base 6.2.1
 (optional=templinst|arch=!ia64 !powerpc !s390 !s390x !sparc)_ZN9mapserver18render_scanline_aaINS_11scanline_p8ENS_13renderer_baseINS_23pixfmt_alpha_blend_rgbaINS_16blender_rgba_preINS_5rgba8ENS_10order_bgraEEENS_12row_accessorIhEEjEEEENS_14span_allocatorIS5_EENS_17span_pattern_rgbaINS_19image_accessor_wrapISA_NS_16wrap_mode_repeatESG_EEEEEEvRKT_RT0_RT1_RT2_@Base 6.2.1
 (optional=templinst|arch=powerpc)_ZN9mapserver18render_scanline_aaINS_11scanline_p8ENS_13renderer_baseINS_23pixfmt_alpha_blend_rgbaINS_16blender_rgba_preINS_5rgba8ENS_10order_bgraEEENS_12row_accessorIhEEjEEEENS_14span_allocatorIS5_EENS_36span_image_filter_rgba_bilinear_clipISA_NS_24span_interpolator_linearINS_12trans_affineELj8EEEEEEEvRKT_RT0_RT1_RT2_@Base 6.4.0
#MISSING: 6.4.0# _ZN9mapserver18vpgen_clip_polygon14clipping_flagsEdd@Base 6.2.1
#MISSING: 6.4.0# _ZN9mapserver18vpgen_clip_polygon5resetEv@Base 6.2.1
#MISSING: 6.4.0# _ZN9mapserver18vpgen_clip_polygon6vertexEPdS1_@Base 6.2.1
#MISSING: 6.4.0# _ZN9mapserver18vpgen_clip_polygon7line_toEdd@Base 6.2.1
#MISSING: 6.4.0# _ZN9mapserver18vpgen_clip_polygon7move_toEdd@Base 6.2.1
 (optional=templinst)_ZN9mapserver19rasterizer_cells_aaINS_7cell_aaEE10sort_cellsEv@Base 6.2.1
 (optional=templinst)_ZN9mapserver19rasterizer_cells_aaINS_7cell_aaEE12render_hlineEiiiii@Base 6.2.1
 (optional=templinst|arch=!amd64 !kfreebsd-amd64)_ZN9mapserver19rasterizer_cells_aaINS_7cell_aaEE14allocate_blockEv@Base 6.4.0
 (optional=templinst)_ZN9mapserver19rasterizer_cells_aaINS_7cell_aaEE4lineEiiii@Base 6.2.1
 (optional=templinst)_ZN9mapserver19rasterizer_cells_aaINS_7cell_aaEED1Ev@Base 6.2.1
 (optional=templinst)_ZN9mapserver19rasterizer_cells_aaINS_7cell_aaEED2Ev@Base 6.2.1
 (optional=templinst|arch=armel armhf i386 kfreebsd-i386 mips mipsel)_ZN9mapserver19scanline_storage_aaIhE6renderINS_11scanline_u8EEEvRKT_@Base 6.2.1
 (optional=templinst)_ZN9mapserver19scanline_storage_aaIhED1Ev@Base 6.2.1
 (optional=templinst)_ZN9mapserver19scanline_storage_aaIhED2Ev@Base 6.2.1
#MISSING: 6.4.0# _ZN9mapserver19vpgen_clip_polyline5resetEv@Base 6.2.1
#MISSING: 6.4.0# _ZN9mapserver19vpgen_clip_polyline6vertexEPdS1_@Base 6.2.1
#MISSING: 6.4.0# _ZN9mapserver19vpgen_clip_polyline7line_toEdd@Base 6.2.1
#MISSING: 6.4.0# _ZN9mapserver19vpgen_clip_polyline7move_toEdd@Base 6.2.1
 (optional=templinst)_ZN9mapserver20decompose_ft_outlineINS_20path_storage_integerIiLj6EEEEEbRK11FT_Outline_bRKNS_12trans_affineERT_@Base 6.2.1
 (optional=templinst)_ZN9mapserver20decompose_ft_outlineINS_20path_storage_integerIsLj6EEEEEbRK11FT_Outline_bRKNS_12trans_affineERT_@Base 6.2.1
 _ZN9mapserver20mcs11_prop_condensedE@Base 6.2.1
 (optional=templinst|arch=amd64 armel armhf i386 kfreebsd-amd64 kfreebsd-i386 mips mipsel)_ZN9mapserver20path_storage_integerIiLj6EE6curve4Eiiiiii@Base 6.2.1
 (optional=templinst|arch=ia64 powerpc s390 s390x sparc)_ZN9mapserver20path_storage_integerIiLj6EED1Ev@Base 6.4.0
 (optional=templinst|arch=ia64 powerpc s390 s390x sparc)_ZN9mapserver20path_storage_integerIiLj6EED2Ev@Base 6.4.0
 (optional=templinst|arch=amd64 armel armhf i386 kfreebsd-amd64 kfreebsd-i386 mips mipsel)_ZN9mapserver20path_storage_integerIsLj6EE6curve4Essssss@Base 6.2.1
 (optional=templinst|arch=ia64 powerpc s390 s390x sparc)_ZN9mapserver20path_storage_integerIsLj6EED1Ev@Base 6.4.0
 (optional=templinst|arch=ia64 powerpc s390 s390x sparc)_ZN9mapserver20path_storage_integerIsLj6EED2Ev@Base 6.4.0
 (arch=ia64 powerpc s390 s390x sparc)_ZN9mapserver20scanline_storage_binD1Ev@Base 6.4.0
 (arch=ia64 powerpc s390 s390x sparc)_ZN9mapserver20scanline_storage_binD2Ev@Base 6.4.0
#MISSING: 6.4.0# (optional=templinst)_ZN9mapserver20vertex_block_storageIdLj8ELj256EE10add_vertexEddj@Base 6.2.1
 (optional=templinst)_ZN9mapserver20vertex_block_storageIdLj8ELj256EE12storage_ptrsEPPd@Base 6.4.0
 (optional=templinst|arch=ia64 powerpc s390 s390x sparc)_ZN9mapserver20vertex_block_storageIdLj8ELj256EE14allocate_blockEj@Base 6.4.0
 (optional=templinst|arch=!ia64 !powerpc !s390 !s390x !sparc)_ZN9mapserver20vertex_block_storageIdLj8ELj256EE8free_allEv@Base 6.2.1
 (optional=templinst)_ZN9mapserver21rasterizer_outline_aaINS_22renderer_outline_imageINS_13renderer_baseINS_23pixfmt_alpha_blend_rgbaINS_16blender_rgba_preINS_5rgba8ENS_10order_bgraEEENS_12row_accessorIhEEjEEEENS_18line_image_patternINS_28pattern_filter_bilinear_rgbaIS5_EEEEEENS_14line_coord_satEE4drawERNSI_9draw_varsEjj@Base 6.2.1
 (optional=templinst)_ZN9mapserver21rasterizer_outline_aaINS_22renderer_outline_imageINS_13renderer_baseINS_23pixfmt_alpha_blend_rgbaINS_16blender_rgba_preINS_5rgba8ENS_10order_bgraEEENS_12row_accessorIhEEjEEEENS_18line_image_patternINS_28pattern_filter_bilinear_rgbaIS5_EEEEEENS_14line_coord_satEE6renderEb@Base 6.2.1
 (optional=templinst)_ZN9mapserver22rasterizer_scanline_aaINS_18rasterizer_sl_clipINS_12ras_conv_intEEEE10add_vertexEddj@Base 6.2.1
 (optional=templinst|arch=!ia64 !powerpc !s390 !s390x !sparc)_ZN9mapserver22rasterizer_scanline_aaINS_18rasterizer_sl_clipINS_12ras_conv_intEEEE14sweep_scanlineINS_11scanline_p8EEEbRT_@Base 6.2.1
 (optional=templinst|arch=amd64 armel armhf i386 kfreebsd-amd64 kfreebsd-i386 mips mipsel)_ZN9mapserver22rasterizer_scanline_aaINS_18rasterizer_sl_clipINS_12ras_conv_intEEEE8add_pathINS_10conv_curveINS_20path_storage_integerIiLj6EEENS_6curve3ENS_6curve4EEEEEvRT_j@Base 6.2.1
 (optional=templinst|arch=amd64 armel armhf i386 kfreebsd-amd64 kfreebsd-i386 mips mipsel)_ZN9mapserver22rasterizer_scanline_aaINS_18rasterizer_sl_clipINS_12ras_conv_intEEEE8add_pathINS_10conv_curveINS_20path_storage_integerIsLj6EEENS_6curve3ENS_6curve4EEEEEvRT_j@Base 6.2.1
 (optional=templinst|arch=!ia64 !powerpc !s390x !sparc)_ZN9mapserver22rasterizer_scanline_aaINS_18rasterizer_sl_clipINS_12ras_conv_intEEEE8add_pathINS_12conv_contourINS_9path_baseINS_20vertex_block_storageIdLj8ELj256EEEEEEEEEvRT_j@Base 6.2.1
 (optional=templinst|arch=!ia64 !powerpc !s390 !s390x !sparc)_ZN9mapserver22rasterizer_scanline_aaINS_18rasterizer_sl_clipINS_12ras_conv_intEEEE8add_pathINS_9path_baseINS_20vertex_block_storageIdLj8ELj256EEEEEEEvRT_j@Base 6.2.1
 (optional=templinst|arch=ia64 powerpc s390 s390x sparc)_ZN9mapserver22rasterizer_scanline_aaINS_18rasterizer_sl_clipINS_12ras_conv_intEEEE9move_to_dEdd@Base 6.4.0
 (optional=templinst)_ZN9mapserver22renderer_outline_imageINS_13renderer_baseINS_23pixfmt_alpha_blend_rgbaINS_16blender_rgba_preINS_5rgba8ENS_10order_bgraEEENS_12row_accessorIhEEjEEEENS_18line_image_patternINS_28pattern_filter_bilinear_rgbaIS4_EEEEE13line3_no_clipERKNS_15line_parametersEiiii@Base 6.2.1
 (optional=templinst|arch=!ia64 !powerpc !s390 !s390x !sparc)_ZN9mapserver22renderer_outline_imageINS_13renderer_baseINS_23pixfmt_alpha_blend_rgbaINS_16blender_rgba_preINS_5rgba8ENS_10order_bgraEEENS_12row_accessorIhEEjEEEENS_18line_image_patternINS_28pattern_filter_bilinear_rgbaIS4_EEEEE5line3ERKNS_15line_parametersEiiii@Base 6.2.1
 (optional=templinst|arch=ia64 s390 s390x sparc)_ZN9mapserver23line_interpolator_imageINS_22renderer_outline_imageINS_13renderer_baseINS_23pixfmt_alpha_blend_rgbaINS_16blender_rgba_preINS_5rgba8ENS_10order_bgraEEENS_12row_accessorIhEEjEEEENS_18line_image_patternINS_28pattern_filter_bilinear_rgbaIS5_EEEEEEE8step_horEv@Base 6.4.0
 (optional=templinst|arch=ia64 powerpc s390 s390x sparc)_ZN9mapserver23line_interpolator_imageINS_22renderer_outline_imageINS_13renderer_baseINS_23pixfmt_alpha_blend_rgbaINS_16blender_rgba_preINS_5rgba8ENS_10order_bgraEEENS_12row_accessorIhEEjEEEENS_18line_image_patternINS_28pattern_filter_bilinear_rgbaIS5_EEEEEEEC1ERSG_RKNS_15line_parametersEiiiiid@Base 6.4.0
 (optional=templinst|arch=ia64 powerpc s390 s390x sparc)_ZN9mapserver23line_interpolator_imageINS_22renderer_outline_imageINS_13renderer_baseINS_23pixfmt_alpha_blend_rgbaINS_16blender_rgba_preINS_5rgba8ENS_10order_bgraEEENS_12row_accessorIhEEjEEEENS_18line_image_patternINS_28pattern_filter_bilinear_rgbaIS5_EEEEEEEC2ERSG_RKNS_15line_parametersEiiiiid@Base 6.4.0
 (optional=templinst|arch=ia64 powerpc s390 s390x sparc)_ZN9mapserver23pixfmt_alpha_blend_rgbaINS_16blender_rgba_preINS_5rgba8ENS_10order_bgraEEENS_12row_accessorIhEEjE17blend_color_hspanEiijPKS2_PKhh@Base 6.4.0
 (optional=templinst|arch=!armel !armhf)_ZN9mapserver23pixfmt_alpha_blend_rgbaINS_16blender_rgba_preINS_5rgba8ENS_10order_bgraEEENS_12row_accessorIhEEjE17blend_color_vspanEiijPKS2_PKhh@Base 6.2.1
 (optional=templinst|arch=ia64 powerpc s390 s390x sparc)_ZN9mapserver24decompose_ft_bitmap_monoINS_12scanline_binENS_20scanline_storage_binEEEvRK10FT_Bitmap_iibRT_RT0_@Base 6.4.0
 (optional=templinst|arch=ia64 powerpc s390 s390x sparc)_ZN9mapserver25decompose_ft_bitmap_gray8INS_22rasterizer_scanline_aaINS_18rasterizer_sl_clipINS_12ras_conv_intEEEEENS_11scanline_u8ENS_19scanline_storage_aaIhEEEEvRK10FT_Bitmap_iibRT_RT0_RT1_@Base 6.4.0
 _ZN9mapserver25font_engine_freetype_base10resolutionEj@Base 6.2.1
 _ZN9mapserver25font_engine_freetype_base11add_kerningEjjPdS1_@Base 6.2.1
 _ZN9mapserver25font_engine_freetype_base13prepare_glyphEj@Base 6.2.1
 _ZN9mapserver25font_engine_freetype_base16update_char_sizeEv@Base 6.2.1
 _ZN9mapserver25font_engine_freetype_base16update_signatureEv@Base 6.2.1
 _ZN9mapserver25font_engine_freetype_base5widthEd@Base 6.2.1
 _ZN9mapserver25font_engine_freetype_base6attachEPKc@Base 6.2.1
 _ZN9mapserver25font_engine_freetype_base6flip_yEb@Base 6.2.1
 _ZN9mapserver25font_engine_freetype_base6heightEd@Base 6.2.1
 _ZN9mapserver25font_engine_freetype_base7hintingEb@Base 6.2.1
 _ZN9mapserver25font_engine_freetype_base8char_mapE12FT_Encoding_@Base 6.2.1
 _ZN9mapserver25font_engine_freetype_base9load_fontEPKcjNS_15glyph_renderingES2_l@Base 6.2.1
 _ZN9mapserver25font_engine_freetype_base9transformERKNS_12trans_affineE@Base 6.2.1
 _ZN9mapserver25font_engine_freetype_baseC1Ebj@Base 6.2.1
 _ZN9mapserver25font_engine_freetype_baseC2Ebj@Base 6.2.1
 _ZN9mapserver25font_engine_freetype_baseD1Ev@Base 6.2.1
 _ZN9mapserver25font_engine_freetype_baseD2Ev@Base 6.2.1
 (optional=templinst|arch=armel armhf)_ZN9mapserver26copy_or_blend_rgba_wrapperINS_16blender_rgba_preINS_5rgba8ENS_10order_bgraEEEE17copy_or_blend_pixEPhjjjjj@Base 6.4.0
 (optional=templinst|arch=!ia64 !powerpc !s390 !s390x !sparc)_ZN9mapserver28pattern_filter_bilinear_rgbaINS_5rgba8EE14pixel_high_resEPKPKS1_PS1_ii@Base 6.2.1
 (optional=templinst)_ZN9mapserver31serialized_integer_path_adaptorIsLj6EE6vertexEPdS2_@Base 6.2.1
 (optional=templinst|arch=armel armhf i386 kfreebsd-i386)_ZN9mapserver36span_image_filter_rgba_bilinear_clipINS_23pixfmt_alpha_blend_rgbaINS_16blender_rgba_preINS_5rgba8ENS_10order_bgraEEENS_12row_accessorIhEEjEENS_24span_interpolator_linearINS_12trans_affineELj8EEEE8generateEPS3_iij@Base 6.2.1
 _ZN9mapserver3arc19approximation_scaleEd@Base 6.2.1
 _ZN9mapserver3arc4initEddddddb@Base 6.2.1
 _ZN9mapserver3arc6rewindEj@Base 6.2.1
 _ZN9mapserver3arc6vertexEPdS1_@Base 6.2.1
 _ZN9mapserver3arc9normalizeEddb@Base 6.2.1
 _ZN9mapserver3arcC1Eddddddb@Base 6.2.1
 _ZN9mapserver3arcC2Eddddddb@Base 6.2.1
 (arch=!ia64 !powerpc !s390 !s390x !sparc)_ZN9mapserver5rgba811premultiplyEv@Base 6.4.0
 (arch=ia64 powerpc s390 s390x sparc)_ZN9mapserver6curve36vertexEPdS1_@Base 6.4.0
 (arch=ia64 powerpc s390 s390x sparc)_ZN9mapserver6curve46vertexEPdS1_@Base 6.4.0
 _ZN9mapserver6gse4x6E@Base 6.2.1
 _ZN9mapserver6gse4x8E@Base 6.2.1
 _ZN9mapserver6gse5x7E@Base 6.2.1
 _ZN9mapserver6gse5x9E@Base 6.2.1
 _ZN9mapserver6gse6x9E@Base 6.2.1
 _ZN9mapserver7gse6x12E@Base 6.2.1
 _ZN9mapserver7gse7x11E@Base 6.2.1
 _ZN9mapserver7gse7x15E@Base 6.2.1
 _ZN9mapserver7gse8x16E@Base 6.2.1
 _ZN9mapserver9bisectrixERKNS_15line_parametersES2_PiS3_@Base 6.2.1
 (optional=templinst|arch=ia64 powerpc s390 s390x sparc)_ZN9mapserver9path_baseINS_20vertex_block_storageIdLj8ELj256EEEED1Ev@Base 6.4.0
 (optional=templinst|arch=ia64 powerpc s390 s390x sparc)_ZN9mapserver9path_baseINS_20vertex_block_storageIdLj8ELj256EEEED2Ev@Base 6.4.0
 _ZN9mapserver9verdana12E@Base 6.2.1
 _ZN9mapserver9verdana13E@Base 6.2.1
 _ZN9mapserver9verdana14E@Base 6.2.1
 _ZN9mapserver9verdana16E@Base 6.2.1
 _ZN9mapserver9verdana17E@Base 6.2.1
 _ZN9mapserver9verdana18E@Base 6.2.1
 _ZNK10ClipperLib16clipperException4whatEv@Base 6.2.1
 (arch=!ia64 !powerpc !s390 !s390x !sparc)_ZNK10ClipperLib6Int128mlERKS0_@Base 6.4.0
 _ZNK10ClipperLib7Clipper14IsContributingERKNS_5TEdgeE@Base 6.2.1
 _ZNK10ClipperLib7Clipper17IsEvenOddFillTypeERKNS_5TEdgeE@Base 6.2.1
 _ZNK10ClipperLib7Clipper20IsEvenOddAltFillTypeERKNS_5TEdgeE@Base 6.2.1
 _ZNK9mapserver10curve3_inc19approximation_scaleEv@Base 6.2.1
 _ZNK9mapserver10curve4_inc19approximation_scaleEv@Base 6.2.1
 _ZNK9mapserver12trans_affine11is_identityEd@Base 6.2.1
 _ZNK9mapserver12trans_affine11translationEPdS1_@Base 6.2.1
 _ZNK9mapserver12trans_affine7scalingEPdS1_@Base 6.2.1
 _ZNK9mapserver12trans_affine8is_equalERKS0_d@Base 6.2.1
 _ZNK9mapserver12trans_affine8is_validEd@Base 6.2.1
 _ZNK9mapserver12trans_affine8rotationEv@Base 6.2.1
 (arch=armel armhf i386 kfreebsd-i386 mips mipsel)_ZNK9mapserver12trans_affine9transformEPdS1_@Base 6.4.0
 (optional=templinst)_ZNK9mapserver18rasterizer_sl_clipINS_12ras_conv_intEE11line_clip_yINS_19rasterizer_cells_aaINS_7cell_aaEEEEEvRT_iiiijj@Base 6.2.1
 (optional=templinst|arch=ia64 powerpc s390 s390x sparc)_ZNK9mapserver22renderer_outline_imageINS_13renderer_baseINS_23pixfmt_alpha_blend_rgbaINS_16blender_rgba_preINS_5rgba8ENS_10order_bgraEEENS_12row_accessorIhEEjEEEENS_18line_image_patternINS_28pattern_filter_bilinear_rgbaIS4_EEEEE5pixelEPS4_ii@Base 6.4.0
 _ZNK9mapserver25font_engine_freetype_base14write_glyph_toEPh@Base 6.2.1
 _ZNK9mapserver25font_engine_freetype_base8ascenderEv@Base 6.2.1
 _ZNK9mapserver25font_engine_freetype_base9descenderEv@Base 6.2.1
 _ZNK9mapserver25font_engine_freetype_base9find_faceEPKc@Base 6.2.1
 _ZNK9mapserver25font_engine_freetype_base9num_facesEv@Base 6.2.1
 (optional=templinst|arch=!ia64 !powerpc !s390 !s390x !sparc)_ZNSt20__uninitialized_copyILb0EE13__uninit_copyIPN10ClipperLib9ExPolygonES4_EET0_T_S6_S5_@Base 6.2.1
 (optional=templinst|arch=!ia64 !powerpc !s390 !s390x !sparc)_ZNSt20__uninitialized_copyILb0EE13__uninit_copyIPSt6vectorIN10ClipperLib8IntPointESaIS4_EES7_EET0_T_S9_S8_@Base 6.2.1
 (optional=templinst|arch=armel armhf i386 kfreebsd-i386 mips mipsel)_ZNSt22__uninitialized_fill_nILb0EE15__uninit_fill_nIPSt6vectorIN10ClipperLib8IntPointESaIS4_EEjS6_EEvT_T0_RKT1_@Base 6.2.1
 (optional=templinst|arch=amd64 kfreebsd-amd64)_ZNSt22__uninitialized_fill_nILb0EE15__uninit_fill_nIPSt6vectorIN10ClipperLib8IntPointESaIS4_EEmS6_EEvT_T0_RKT1_@Base 6.2.1
 (optional=templinst|arch=armel armhf i386 kfreebsd-i386 mips mipsel sparc)_ZNSt6vectorIN10ClipperLib11DoublePointESaIS1_EE14_M_fill_insertEN9__gnu_cxx17__normal_iteratorIPS1_S3_EEjRKS1_@Base 6.2.1
 (optional=templinst|arch=amd64 ia64 kfreebsd-amd64)_ZNSt6vectorIN10ClipperLib11DoublePointESaIS1_EE14_M_fill_insertEN9__gnu_cxx17__normal_iteratorIPS1_S3_EEmRKS1_@Base 6.2.1
 (optional=templinst)_ZNSt6vectorIN10ClipperLib8IntPointESaIS1_EE13_M_insert_auxEN9__gnu_cxx17__normal_iteratorIPS1_S3_EERKS1_@Base 6.2.1
 (optional=templinst|arch=armel armhf i386 kfreebsd-i386 mips mipsel powerpc sparc)_ZNSt6vectorIN10ClipperLib8IntPointESaIS1_EE14_M_fill_insertEN9__gnu_cxx17__normal_iteratorIPS1_S3_EEjRKS1_@Base 6.2.1
 (optional=templinst|arch=amd64 ia64 kfreebsd-amd64 s390 s390x)_ZNSt6vectorIN10ClipperLib8IntPointESaIS1_EE14_M_fill_insertEN9__gnu_cxx17__normal_iteratorIPS1_S3_EEmRKS1_@Base 6.2.1
 (optional=templinst|arch=armel armhf i386 ia64 kfreebsd-i386 mips mipsel powerpc s390 s390x sparc|subst)_ZNSt6vectorIN10ClipperLib8IntPointESaIS1_EE7reserveE{size_t}@Base 6.4.0
 (optional=templinst|arch=ia64 powerpc s390 s390x sparc)_ZNSt6vectorIN10ClipperLib8IntPointESaIS1_EEC1ERKS3_@Base 6.4.0
 (optional=templinst|arch=ia64 powerpc s390 s390x sparc)_ZNSt6vectorIN10ClipperLib8IntPointESaIS1_EEC2ERKS3_@Base 6.4.0
 (optional=templinst)_ZNSt6vectorIN10ClipperLib8IntPointESaIS1_EEaSERKS3_@Base 6.2.1
 (optional=templinst|arch=!ia64 !powerpc !s390 !s390x !sparc)_ZNSt6vectorIN10ClipperLib9ExPolygonESaIS1_EE13_M_insert_auxEN9__gnu_cxx17__normal_iteratorIPS1_S3_EERKS1_@Base 6.2.1
 (optional=templinst|arch=armel armhf i386 kfreebsd-i386 mips mipsel powerpc)_ZNSt6vectorIN10ClipperLib9ExPolygonESaIS1_EE14_M_fill_insertEN9__gnu_cxx17__normal_iteratorIPS1_S3_EEjRKS1_@Base 6.2.1
 (optional=templinst|arch=amd64 kfreebsd-amd64 s390 s390x)_ZNSt6vectorIN10ClipperLib9ExPolygonESaIS1_EE14_M_fill_insertEN9__gnu_cxx17__normal_iteratorIPS1_S3_EEmRKS1_@Base 6.2.1
 (optional=templinst|arch=armel armhf i386 kfreebsd-i386 mips mipsel powerpc sparc)_ZNSt6vectorIN10ClipperLib9ExPolygonESaIS1_EE7reserveEj@Base 6.2.1
 (optional=templinst|arch=amd64 ia64 kfreebsd-amd64 s390 s390x)_ZNSt6vectorIN10ClipperLib9ExPolygonESaIS1_EE7reserveEm@Base 6.2.1
 (optional=templinst)_ZNSt6vectorIPN10ClipperLib11HorzJoinRecESaIS2_EE13_M_insert_auxEN9__gnu_cxx17__normal_iteratorIPS2_S4_EERKS2_@Base 6.2.1
 (optional=templinst|arch=armel armhf i386 kfreebsd-i386 mips mipsel)_ZNSt6vectorIPN10ClipperLib11HorzJoinRecESaIS2_EE14_M_fill_insertEN9__gnu_cxx17__normal_iteratorIPS2_S4_EEjRKS2_@Base 6.2.1
 (optional=templinst|arch=amd64 kfreebsd-amd64)_ZNSt6vectorIPN10ClipperLib11HorzJoinRecESaIS2_EE14_M_fill_insertEN9__gnu_cxx17__normal_iteratorIPS2_S4_EEmRKS2_@Base 6.2.1
 (optional=templinst)_ZNSt6vectorIPN10ClipperLib5TEdgeESaIS2_EE13_M_insert_auxEN9__gnu_cxx17__normal_iteratorIPS2_S4_EERKS2_@Base 6.2.1
 (optional=templinst)_ZNSt6vectorIPN10ClipperLib6OutRecESaIS2_EE13_M_insert_auxEN9__gnu_cxx17__normal_iteratorIPS2_S4_EERKS2_@Base 6.2.1
 (optional=templinst)_ZNSt6vectorIPN10ClipperLib7JoinRecESaIS2_EE13_M_insert_auxEN9__gnu_cxx17__normal_iteratorIPS2_S4_EERKS2_@Base 6.2.1
 (optional=templinst|arch=armel armhf i386 kfreebsd-i386 mips mipsel)_ZNSt6vectorIPN10ClipperLib7JoinRecESaIS2_EE14_M_fill_insertEN9__gnu_cxx17__normal_iteratorIPS2_S4_EEjRKS2_@Base 6.2.1
 (optional=templinst|arch=amd64 kfreebsd-amd64)_ZNSt6vectorIPN10ClipperLib7JoinRecESaIS2_EE14_M_fill_insertEN9__gnu_cxx17__normal_iteratorIPS2_S4_EEmRKS2_@Base 6.2.1
 (optional=templinst|arch=!ia64 !powerpc !s390 !s390x !sparc)_ZNSt6vectorIS_IN10ClipperLib8IntPointESaIS1_EESaIS3_EE13_M_insert_auxEN9__gnu_cxx17__normal_iteratorIPS3_S5_EERKS3_@Base 6.2.1
 (optional=templinst|arch=armel armhf i386 kfreebsd-i386 mips mipsel powerpc sparc)_ZNSt6vectorIS_IN10ClipperLib8IntPointESaIS1_EESaIS3_EE14_M_fill_insertEN9__gnu_cxx17__normal_iteratorIPS3_S5_EEjRKS3_@Base 6.2.1
 (optional=templinst|arch=amd64 ia64 kfreebsd-amd64 s390 s390x)_ZNSt6vectorIS_IN10ClipperLib8IntPointESaIS1_EESaIS3_EE14_M_fill_insertEN9__gnu_cxx17__normal_iteratorIPS3_S5_EEmRKS3_@Base 6.2.1
 (optional=templinst)_ZNSt6vectorIS_IN10ClipperLib8IntPointESaIS1_EESaIS3_EED1Ev@Base 6.2.1
 (optional=templinst)_ZNSt6vectorIS_IN10ClipperLib8IntPointESaIS1_EESaIS3_EED2Ev@Base 6.2.1
 (optional=templinst)_ZNSt6vectorIS_IN10ClipperLib8IntPointESaIS1_EESaIS3_EEaSERKS5_@Base 6.2.1
 (optional=templinst|arch=armel armhf i386 kfreebsd-i386 mips mipsel powerpc s390 sparc)_ZSt13__adjust_heapIN9__gnu_cxx17__normal_iteratorIPPN10ClipperLib6OutRecESt6vectorIS4_SaIS4_EEEEiS4_PFbS4_S4_EEvT_T0_SD_T1_T2_@Base 6.2.1
 (optional=templinst|arch=amd64 ia64 kfreebsd-amd64 s390x)_ZSt13__adjust_heapIN9__gnu_cxx17__normal_iteratorIPPN10ClipperLib6OutRecESt6vectorIS4_SaIS4_EEEElS4_PFbS4_S4_EEvT_T0_SD_T1_T2_@Base 6.2.1
 (optional=templinst|arch=ia64 powerpc s390 s390x sparc)_ZSt13__heap_selectIN9__gnu_cxx17__normal_iteratorIPPN10ClipperLib6OutRecESt6vectorIS4_SaIS4_EEEEPFbS4_S4_EEvT_SC_SC_T0_@Base 6.4.0
#MISSING: 6.4.0# (optional=templinst)_ZSt16__insertion_sortIN9__gnu_cxx17__normal_iteratorIPPN10ClipperLib6OutRecESt6vectorIS4_SaIS4_EEEEPFbS4_S4_EEvT_SC_T0_@Base 6.2.1
 (optional=templinst|arch=armel armhf i386 kfreebsd-i386 mips mipsel)_ZSt16__introsort_loopIN9__gnu_cxx17__normal_iteratorIPPN10ClipperLib6OutRecESt6vectorIS4_SaIS4_EEEEiPFbS4_S4_EEvT_SC_T0_T1_@Base 6.2.1
 (optional=templinst|arch=amd64 kfreebsd-amd64)_ZSt16__introsort_loopIN9__gnu_cxx17__normal_iteratorIPPN10ClipperLib6OutRecESt6vectorIS4_SaIS4_EEEElPFbS4_S4_EEvT_SC_T0_T1_@Base 6.2.1
#MISSING: 6.4.1# (optional=templinst|arch=!powerpc !s390 !s390x)_ZSt19__move_median_firstIN9__gnu_cxx17__normal_iteratorIPPN10ClipperLib6OutRecESt6vectorIS4_SaIS4_EEEEPFbS4_S4_EEvT_SC_SC_T0_@Base 6.2.1
#MISSING: 6.4.0# (optional=templinst)_ZSt25__unguarded_linear_insertIN9__gnu_cxx17__normal_iteratorIPPN10ClipperLib6OutRecESt6vectorIS4_SaIS4_EEEEPFbS4_S4_EEvT_T0_@Base 6.2.1
 (optional=templinst|arch=ia64 powerpc s390 s390x sparc)_ZSt8_DestroyIPSt6vectorIN10ClipperLib8IntPointESaIS2_EEEvT_S6_@Base 6.4.0
 _ZTI11KmlRenderer@Base 6.4.0
 _ZTI12line_adaptor@Base 6.2.1
 _ZTI15polygon_adaptor@Base 6.2.1
 _ZTIN10ClipperLib11ClipperBaseE@Base 6.2.1
 _ZTIN10ClipperLib16clipperExceptionE@Base 6.2.1
 _ZTIN10ClipperLib7ClipperE@Base 6.2.1
 _ZTS11KmlRenderer@Base 6.4.0
 _ZTS12line_adaptor@Base 6.2.1
 _ZTS15polygon_adaptor@Base 6.2.1
 _ZTSN10ClipperLib11ClipperBaseE@Base 6.2.1
 _ZTSN10ClipperLib16clipperExceptionE@Base 6.2.1
 _ZTSN10ClipperLib7ClipperE@Base 6.2.1
 _ZTTN10ClipperLib7ClipperE@Base 6.2.1
 _ZTV11KmlRenderer@Base 6.4.0
 _ZTV12line_adaptor@Base 6.2.1
 _ZTV15polygon_adaptor@Base 6.2.1
 _ZTVN10ClipperLib11ClipperBaseE@Base 6.2.1
 _ZTVN10ClipperLib16clipperExceptionE@Base 6.2.1
 _ZTVN10ClipperLib7ClipperE@Base 6.2.1
 _getline@Base 6.2.1
 _msSLDParseSizeParameter@Base 6.2.1
 _msValidateTime@Base 6.2.1
 _stream_write_fn@Base 6.2.1
 _validateNamespace@Base 6.2.1
 addTileCache@Base 6.2.1
 annotationLayerDrawShape@Base 6.2.1
 arcCircleCenter@Base 6.2.1
 arcStrokeCircle@Base 6.2.1
 arcStrokeCircularString@Base 6.2.1
 bitmapFontMetricsGD@Base 6.2.1
 bufferPolyline@Base 6.2.1
 calcMidAngle@Base 6.2.1
 calcOrientation@Base 6.2.1
 checkWebExtent@Base 6.2.1
 checkWebScale@Base 6.2.1
 circleLayerDrawShape@Base 6.2.1
 cleanupCairo@Base 6.2.1
 cleanupDummy@Base 6.2.1
 closeLayerRasterCairo@Base 6.2.1
 closeLayerVectorCairo@Base 6.2.1
 closeNewLayerGD@Base 6.2.1
 clusterDestroyData@Base 6.2.1
 computeLabelMarkerPoly@Base 6.2.1
 computeLabelStyle@Base 6.2.1
 computeMarkerPoly@Base 6.2.1
 computeSymbolStyle@Base 6.2.1
 createEllipseSymbolTileDummy@Base 6.2.1
 createImageCairo@Base 6.2.1
 createImageDummy@Base 6.2.1
 createImageGD@Base 6.2.1
 createPixmapSymbolTileDummy@Base 6.2.1
 createPostgresTimeCompareRange@Base 6.2.1
 createPostgresTimeCompareSimple@Base 6.2.1
 createRasterBufferDummy@Base 6.2.1
 createSurfaceFromBuffer@Base 6.2.1
 createTruetypeSymbolTileDummy@Base 6.2.1
 createVectorSymbolTileDummy@Base 6.2.1
 ctable@Base 6.2.1
 defaultoutputformats@Base 6.2.1
 drawRectangle@Base 6.2.1
 endLayerDummy@Base 6.2.1
 endShapeDummy@Base 6.2.1
 escape_shell_cmd@Base 6.2.1
 fastComputeBounds@Base 6.2.1
 findChartPoint@Base 6.2.1
 findTag@Base 6.2.1
 findTagEnd@Base 6.2.1
 fmakeword@Base 6.2.1
 freeClass@Base 6.2.1
 freeClassHitTests@Base 6.4.0
 freeCluster@Base 6.2.1
 freeExpression@Base 6.2.1
 freeExpressionTokens@Base 6.2.1
 freeFaceCache@Base 6.2.1
 freeFeatureList@Base 6.2.1
 freeImageCache@Base 6.2.1
 freeImageCairo@Base 6.2.1
 freeImageDummy@Base 6.2.1
 freeImageGD@Base 6.2.1
 freeJoin@Base 6.2.1
 freeLabel@Base 6.2.1
 freeLabelHitTests@Base 6.4.0
 freeLayer@Base 6.2.1
 freeLayerHitTests@Base 6.4.0
 freeLegend@Base 6.2.1
 freeMapHitTests@Base 6.4.0
 freeReferenceMap@Base 6.2.1
 freeSVGCache@Base 6.4.0
 freeScaleToken@Base 6.4.0
 freeScaleTokenEntry@Base 6.4.0
 freeScalebar@Base 6.2.1
 freeStyle@Base 6.2.1
 freeSymbolCairo@Base 6.2.1
 freeSymbolDummy@Base 6.2.1
 freeSymbolGD@Base 6.2.1
 freeTileDummy@Base 6.2.1
 freeWeb@Base 6.2.1
 generateClassTemplate@Base 6.2.1
 generateGroupTemplate@Base 6.2.1
 generateLayerTemplate@Base 6.2.1
 generateLegendTemplate@Base 6.2.1
 getCharacter@Base 6.2.1
 getDouble@Base 6.2.1
 getFontFace@Base 6.2.1
 getInlineTag@Base 6.2.1
 getInteger@Base 6.2.1
 getIntegerOrSymbol@Base 6.2.1
 getKmlRenderer@Base 6.4.0
 getNextShape@Base 6.2.1
 getRasterBufferCopyCairo@Base 6.2.1
 getRasterBufferCopyDummy@Base 6.2.1
 getRasterBufferCopyGD@Base 6.2.1
 getRasterBufferHandleCairo@Base 6.2.1
 getRasterBufferHandleDummy@Base 6.2.1
 getRasterBufferHandleGD@Base 6.2.1
 getRgbColor@Base 6.2.1
 getString@Base 6.2.1
 getSymbol2@Base 6.2.1
 getSymbol@Base 6.2.1
 getTagArgs@Base 6.2.1
 getTile@Base 6.2.1
 getTruetypeTextBBoxCairo@Base 6.2.1
 getTruetypeTextBBoxDummy@Base 6.2.1
 getTruetypeTextBBoxGD@Base 6.2.1
 get_metrics@Base 6.2.1
 get_metrics_line@Base 6.2.1
 getword@Base 6.2.1
 inchesPerUnit@Base 6.2.1
 include_lineno@Base 6.2.1
 include_stack@Base 6.2.1
 include_stack_ptr@Base 6.2.1
 ind@Base 6.2.1
 initClass@Base 6.2.1
 initClassHitTests@Base 6.4.0
 initCluster@Base 6.2.1
 initExpression@Base 6.2.1
 initGrid@Base 6.2.1
 initHashTable@Base 6.2.1
 initJoin@Base 6.2.1
 initLabel@Base 6.2.1
 initLabelHitTests@Base 6.4.0
 initLayer@Base 6.2.1
 initLayerHitTests@Base 6.4.0
 initLeader@Base 6.2.1
 initLegend@Base 6.2.1
 initMap@Base 6.2.1
 initMapHitTests@Base 6.4.0
 initQueryMap@Base 6.2.1
 initReferenceMap@Base 6.2.1
 initResultCache@Base 6.2.1
 initScaleToken@Base 6.4.0
 initScalebar@Base 6.2.1
 initStyle@Base 6.2.1
 initStyleHitTests@Base 6.4.0
 initSymbol@Base 6.2.1
 initWeb@Base 6.2.1
 initializeCache@Base 6.2.1
 initializeRasterBufferCairo@Base 6.2.1
 initializeRasterBufferDummy@Base 6.2.1
 initializeRasterBufferGD@Base 6.2.1
 insertFeatureList@Base 6.2.1
 intersectLabelPolygons@Base 6.2.1
 isOn@Base 6.2.1
 isScaleInRange@Base 6.2.1
 jpeg_buffer_empty_output_buffer@Base 6.2.1
 jpeg_buffer_term_destination@Base 6.2.1
 jpeg_init_destination@Base 6.2.1
 jpeg_stream_empty_output_buffer@Base 6.2.1
 jpeg_stream_term_destination@Base 6.2.1
 lineLayerDrawShape@Base 6.2.1
 loadClass@Base 6.2.1
 loadCluster@Base 6.2.1
 loadColor@Base 6.2.1
 loadExpressionString@Base 6.2.1
 loadHashTable@Base 6.2.1
 loadImageFromFileDummy@Base 6.2.1
 loadJoin@Base 6.2.1
 loadLayer@Base 6.2.1
 loadLegend@Base 6.2.1
 loadParams@Base 6.2.1
 loadQueryMap@Base 6.2.1
 loadReferenceMap@Base 6.2.1
 loadScalebar@Base 6.2.1
 loadScaletoken@Base 6.4.0
 loadSymbol@Base 6.2.1
 loadSymbolSet@Base 6.2.1
 loadWeb@Base 6.2.1
 makeTimeFilter@Base 6.2.1
 makeword@Base 6.2.1
 makeword_skip@Base 6.2.1
 mergeRasterBufferCairo@Base 6.2.1
 mergeRasterBufferDummy@Base 6.2.1
 mergeRasterBufferGD@Base 6.2.1
 msAcquireLock@Base 6.2.1
 msAddColorGD@Base 6.2.1
 msAddErrorDisplayString@Base 6.2.1
 msAddImageSymbol@Base 6.2.1
 msAddLabel@Base 6.2.1
 msAddLabelGroup@Base 6.2.1
 msAddLabelToClass@Base 6.2.1
 msAddLine@Base 6.2.1
 msAddLineDirectly@Base 6.2.1
 msAddNewSymbol@Base 6.2.1
 msAddPointToLine@Base 6.2.1
 msAdjustExtent@Base 6.2.1
 msAdjustImage@Base 6.2.1
 msAlignText@Base 6.2.1
 msAllocBitArray@Base 6.2.1
 msAllocCgiObj@Base 6.2.1
 msAllocMapServObj@Base 6.2.1
 msAllocateValidClassGroups@Base 6.2.1
 msAlphaBlend@Base 6.2.1
 msAlphaBlendPM@Base 6.2.1
 msAppendOutputFormat@Base 6.2.1
 msAppendSymbol@Base 6.2.1
 msApplyDefaultOutputFormats@Base 6.2.1
 msApplyDefaultSubstitutions@Base 6.2.1
 msApplyMapConfigOptions@Base 6.2.1
 msApplyOutputFormat@Base 6.2.1
 msApplySubstitutions@Base 6.2.1
 msAxisDenormalizePoints@Base 6.2.1
 msAxisNormalizePoints@Base 6.2.1
 msAxisSwapShape@Base 6.2.1
 msBindLayerToShape@Base 6.2.1
 msBufferAppend@Base 6.2.1
 msBufferFree@Base 6.2.1
 msBufferInit@Base 6.2.1
 msBufferResize@Base 6.2.1
 msBuildOnlineResource@Base 6.2.1
 msBuildPath3@Base 6.2.1
 msBuildPath@Base 6.2.1
 msBuildPluginLibraryPath@Base 6.2.1
 msCGIDispatchBrowseRequest@Base 6.2.1
 msCGIDispatchCoordinateRequest@Base 6.2.1
 msCGIDispatchImageRequest@Base 6.2.1
 msCGIDispatchLegendIconRequest@Base 6.2.1
 msCGIDispatchLegendRequest@Base 6.2.1
 msCGIDispatchQueryRequest@Base 6.2.1
 msCGIDispatchRequest@Base 6.2.1
 msCGIHandler@Base 6.2.1
 msCGILoadForm@Base 6.2.1
 msCGILoadMap@Base 6.2.1
 msCGISetMode@Base 6.2.1
 msCGIWriteError@Base 6.2.1
 msCGIWriteLog@Base 6.2.1
 msCSVJoinClose@Base 6.2.1
 msCSVJoinConnect@Base 6.2.1
 msCSVJoinNext@Base 6.2.1
 msCSVJoinPrepare@Base 6.2.1
 msCairoCleanup@Base 6.2.1
 msCalculateScale@Base 6.2.1
 msCaseReplaceSubstring@Base 6.2.1
 msCheckParentPointer@Base 6.2.1
#MISSING: 6.4.0# msCircleDrawLineSymbol@Base 6.2.1
 msCircleDrawShadeSymbol@Base 6.2.1
 msClassifyRasterBuffer@Base 6.2.1
 msCleanup@Base 6.2.1
 msClearLayerPenValues@Base 6.2.1
 msClearLegendPenValues@Base 6.2.1
 msClearPenValues@Base 6.2.1
 msClearQueryMapPenValues@Base 6.2.1
 msClearReferenceMapPenValues@Base 6.2.1
 msClearScalebarPenValues@Base 6.2.1
 msClipPolygonRect@Base 6.2.1
 msClipPolylineRect@Base 6.2.1
 msCloneOutputFormat@Base 6.2.1
 msCloseConnections@Base 6.2.1
 msCloseErrorFile@Base 6.2.1
 msCloseNewLayerKml@Base 6.4.0
 msClusterEvaluateFilter@Base 6.2.1
 msClusterGetGroupText@Base 6.2.1
 msClusterInitialize@Base 6.2.1
 msClusterLayerClose@Base 6.2.1
 msClusterLayerCopyVirtualTable@Base 6.2.1
 msClusterLayerFreeItemInfo@Base 6.2.1
 msClusterLayerGetItems@Base 6.2.1
 msClusterLayerGetNumFeatures@Base 6.2.1
 msClusterLayerGetShape@Base 6.2.1
 msClusterLayerInitItemInfo@Base 6.2.1
 msClusterLayerInitializeVirtualTable@Base 6.2.1
 msClusterLayerIsOpen@Base 6.2.1
 msClusterLayerNextShape@Base 6.2.1
 msClusterLayerOpen@Base 6.2.1
 msClusterLayerWhichShapes@Base 6.2.1
 msCommifyString@Base 6.2.1
 msComputeBounds@Base 6.2.1
 msConnPoolCloseUnreferenced@Base 6.2.1
 msConnPoolFinalCleanup@Base 6.2.1
 msConnPoolRegister@Base 6.2.1
 msConnPoolRelease@Base 6.2.1
 msConnPoolRequest@Base 6.2.1
 msConnectLayer@Base 6.2.1
 msConstrainExtent@Base 6.2.1
 msContourLayerClose@Base 6.4.0
 msContourLayerGetExtent@Base 6.4.0
 msContourLayerGetItems@Base 6.4.0
 msContourLayerGetShape@Base 6.4.0
 msContourLayerInitializeVirtualTable@Base 6.4.0
 msContourLayerIsOpen@Base 6.4.0
 msContourLayerNextShape@Base 6.4.0
 msContourLayerOpen@Base 6.4.0
 msContourLayerSetTimeFilter@Base 6.4.0
 msContourLayerWhichShapes@Base 6.4.0
 msConvertWideStringToUTF8@Base 6.2.1
 msCopyClass@Base 6.2.1
 msCopyCluster@Base 6.2.1
 msCopyExpression@Base 6.2.1
 msCopyFontSet@Base 6.2.1
 msCopyHashTable@Base 6.2.1
 msCopyItem@Base 6.2.1
 msCopyJoin@Base 6.2.1
 msCopyLabel@Base 6.2.1
 msCopyLayer@Base 6.2.1
 msCopyLeader@Base 6.2.1
 msCopyLegend@Base 6.2.1
 msCopyLine@Base 6.2.1
 msCopyMap@Base 6.2.1
 msCopyProjection@Base 6.2.1
 msCopyQueryMap@Base 6.2.1
 msCopyReferenceMap@Base 6.2.1
 msCopyResult@Base 6.2.1
 msCopyResultCache@Base 6.2.1
 msCopyScaleToken@Base 6.4.0
 msCopyScaleTokenEntry@Base 6.4.0
 msCopyScalebar@Base 6.2.1
 msCopyShape@Base 6.2.1
 msCopyStyle@Base 6.2.1
 msCopySymbol@Base 6.2.1
 msCopySymbolSet@Base 6.2.1
 msCopyWeb@Base 6.2.1
 msCountChars@Base 6.2.1
 msCreateDefaultOutputFormat@Base 6.2.1
 msCreateHashTable@Base 6.2.1
 msCreateImageKml@Base 6.4.0
 msCreateLegendIcon@Base 6.2.1
#MISSING: 6.4.0# msCreateTileEllipseCairo@Base 6.2.1
 msCreateTree@Base 6.2.1
 msDBFAddField@Base 6.2.1
 msDBFClose@Base 6.2.1
 msDBFCreate@Base 6.2.1
 msDBFGetFieldCount@Base 6.2.1
 msDBFGetFieldInfo@Base 6.2.1
 msDBFGetItemIndex@Base 6.2.1
 msDBFGetItemIndexes@Base 6.2.1
 msDBFGetItems@Base 6.2.1
 msDBFGetRecordCount@Base 6.2.1
 msDBFGetValueList@Base 6.2.1
 msDBFGetValues@Base 6.2.1
 msDBFJoinClose@Base 6.2.1
 msDBFJoinConnect@Base 6.2.1
 msDBFJoinNext@Base 6.2.1
 msDBFJoinPrepare@Base 6.2.1
 msDBFOpen@Base 6.2.1
 msDBFReadDoubleAttribute@Base 6.2.1
 msDBFReadIntegerAttribute@Base 6.2.1
 msDBFReadStringAttribute@Base 6.2.1
 msDBFWriteDoubleAttribute@Base 6.2.1
 msDBFWriteIntegerAttribute@Base 6.2.1
 msDBFWriteStringAttribute@Base 6.2.1
 msDateCompare@Base 6.2.1
 msDebug@Base 6.2.1
 msDebugCleanup@Base 6.2.1
 msDebugInitFromEnv@Base 6.2.1
 msDecodeHTMLEntities@Base 6.2.1
 msDecryptStringTokens@Base 6.2.1
 msDecryptStringWithKey@Base 6.2.1
 msDeleteLabelStyle@Base 6.2.1
 msDeleteStyle@Base 6.2.1
 msDestroyTree@Base 6.2.1
 msDistancePointToPoint@Base 6.2.1
 msDistancePointToSegment@Base 6.2.1
 msDistancePointToShape@Base 6.2.1
 msDistanceSegmentToSegment@Base 6.2.1
 msDistanceShapeToShape@Base 6.2.1
 msDoubleToString@Base 6.2.1
 msDrawBarChart@Base 6.2.1
 msDrawBarChartLayer@Base 6.2.1
 msDrawChartLayer@Base 6.2.1
 msDrawEndShape@Base 6.2.1
 msDrawLabel@Base 6.2.1
 msDrawLabelCache@Base 6.2.1
 msDrawLayer@Base 6.2.1
 msDrawLegend@Base 6.2.1
 msDrawLegendIcon@Base 6.2.1
 msDrawLineSymbol@Base 6.2.1
 msDrawLineSymbolIM@Base 6.2.1
 msDrawMap@Base 6.2.1
 msDrawMarkerSymbol@Base 6.2.1
 msDrawMarkerSymbolIM@Base 6.2.1
 msDrawOffsettedLabels@Base 6.2.1
 msDrawPieChart@Base 6.2.1
 msDrawPieChartLayer@Base 6.2.1
 msDrawPieSlice@Base 6.2.1
 msDrawPoint@Base 6.2.1
 msDrawQueryLayer@Base 6.2.1
 msDrawRasterBuildRasterPath@Base 6.4.0
 msDrawRasterCleanupTileLayer@Base 6.4.0
 msDrawRasterGetCPLErrorMsg@Base 6.4.0
 msDrawRasterIterateTileIndex@Base 6.4.0
 msDrawRasterLayer@Base 6.2.1
 msDrawRasterLayerGDAL@Base 6.2.1
 msDrawRasterLayerLow@Base 6.2.1
 msDrawRasterLoadProjection@Base 6.4.0
 msDrawRasterSetupTileLayer@Base 6.4.0
 msDrawReferenceMap@Base 6.2.1
 msDrawScalebar@Base 6.2.1
 msDrawShadeSymbol@Base 6.2.1
 msDrawShadeSymbolIM@Base 6.2.1
 msDrawShape@Base 6.2.1
 msDrawStartShape@Base 6.2.1
 msDrawText@Base 6.2.1
 msDrawTextIM@Base 6.2.1
 msDrawTextLine@Base 6.2.1
 msDrawTransformedShape@Base 6.2.1
 msDrawVBarChart@Base 6.2.1
 msDrawVBarChartLayer@Base 6.2.1
 msDrawVectorLayer@Base 6.2.1
 msDrawWMSLayer@Base 6.2.1
 msDrawWMSLayerLow@Base 6.2.1
 msDumpLayer@Base 6.2.1
 msDumpResult@Base 6.2.1
 msEmbedLegend@Base 6.2.1
 msEmbedScalebar@Base 6.2.1
 msEncodeChar@Base 6.2.1
 msEncodeHTMLEntities@Base 6.2.1
 msEncodeUrl@Base 6.2.1
 msEncodeUrlExcept@Base 6.2.1
 msEncryptStringWithKey@Base 6.2.1
 msEndShapeKml@Base 6.4.0
 msEvalContext@Base 6.2.1
 msEvalExpression@Base 6.2.1
 msEvalRegex@Base 6.2.1
 msExecuteQuery@Base 6.2.1
 msExtentsOverlap@Base 6.2.1
 msFilterTreeSearch@Base 6.2.1
 msFirstKeyFromHashTable@Base 6.2.1
 msFlipBit@Base 6.2.1
 msFontsetLookupFont@Base 6.2.1
 msFontsetLookupFonts@Base 6.2.1
 msForceTmpFileBase@Base 6.2.1
 msFreeCgiObj@Base 6.2.1
 msFreeCharArray@Base 6.2.1
 msFreeFontSet@Base 6.2.1
 msFreeHashItems@Base 6.2.1
 msFreeHashTable@Base 6.2.1
 msFreeImage@Base 6.2.1
 msFreeImageIM@Base 6.2.1
 msFreeImageKml@Base 6.4.0
 msFreeLabelCache@Base 6.2.1
 msFreeLabelCacheSlot@Base 6.2.1
 msFreeLabelPathObj@Base 6.2.1
 msFreeMap@Base 6.2.1
 msFreeMapServObj@Base 6.2.1
 msFreeOutputFormat@Base 6.2.1
 msFreeProjTransformer@Base 6.2.1
 msFreeProjection@Base 6.2.1
 msFreeQuery@Base 6.2.1
 msFreeRasterBuffer@Base 6.2.1
 msFreeShape@Base 6.2.1
 msFreeSymbol@Base 6.2.1
 msFreeSymbolKml@Base 6.4.0
 msFreeSymbolSet@Base 6.2.1
 msFreeWmsParamsObj@Base 6.2.1
 msGDALCleanup@Base 6.2.1
 msGDALInitialize@Base 6.2.1
 msGDCleanup@Base 6.2.1
 msGDSetup@Base 6.2.1
 msGEOSArea@Base 6.2.1
 msGEOSBoundary@Base 6.2.1
 msGEOSBuffer@Base 6.2.1
 msGEOSCleanup@Base 6.2.1
 msGEOSContains@Base 6.2.1
 msGEOSConvexHull@Base 6.2.1
 msGEOSCrosses@Base 6.2.1
 msGEOSDifference@Base 6.2.1
 msGEOSDisjoint@Base 6.2.1
 msGEOSDistance@Base 6.2.1
 msGEOSEquals@Base 6.2.1
 msGEOSFreeGeometry@Base 6.2.1
 msGEOSFreeWKT@Base 6.2.1
 msGEOSGeometry2Shape@Base 6.2.1
 msGEOSGetCentroid@Base 6.2.1
 msGEOSIntersection@Base 6.2.1
 msGEOSIntersects@Base 6.2.1
 msGEOSLength@Base 6.2.1
 msGEOSOffsetCurve@Base 6.4.0
 msGEOSOverlaps@Base 6.2.1
 msGEOSSetup@Base 6.2.1
 msGEOSShape2Geometry@Base 6.2.1
 msGEOSShapeFromWKT@Base 6.2.1
 msGEOSShapeToWKT@Base 6.2.1
 msGEOSSimplify@Base 6.2.1
 msGEOSSymDifference@Base 6.2.1
 msGEOSTopologyPreservingSimplify@Base 6.2.1
 msGEOSTouches@Base 6.2.1
 msGEOSUnion@Base 6.2.1
 msGEOSWithin@Base 6.2.1
 msGML3BoundedBy@Base 6.2.1
 msGML3Point@Base 6.2.1
 msGML3TimeInstant@Base 6.2.1
 msGML3TimePeriod@Base 6.2.1
 msGMLFreeConstants@Base 6.2.1
 msGMLFreeGeometries@Base 6.2.1
 msGMLFreeGroups@Base 6.2.1
 msGMLFreeItems@Base 6.2.1
 msGMLFreeNamespaces@Base 6.2.1
 msGMLGetConstants@Base 6.2.1
 msGMLGetGeometries@Base 6.2.1
 msGMLGetGroups@Base 6.2.1
 msGMLGetItems@Base 6.2.1
 msGMLGetNamespaces@Base 6.2.1
 msGMLWriteQuery@Base 6.2.1
 msGMLWriteWFSQuery@Base 6.2.1
 msGeneralize@Base 6.4.0
 msGenerateEncryptionKey@Base 6.2.1
 msGenerateImages@Base 6.2.1
 msGeomTransformShape@Base 6.4.0
 msGetAllGroupNames@Base 6.2.1
 msGetBasename@Base 6.2.1
 msGetBit@Base 6.2.1
 msGetBitArraySize@Base 6.2.1
 msGetBitmapFont@Base 6.2.1
 msGetCURLAuthType@Base 6.2.1
 msGetClass@Base 6.2.1
 msGetClassIndex@Base 6.2.1
 msGetClass_FloatRGB@Base 6.2.1
 msGetConfigOption@Base 6.2.1
 msGetDebugInfoObj@Base 6.2.1
 msGetEncodedString@Base 6.2.1
 msGetErrorCodeString@Base 6.2.1
 msGetErrorFile@Base 6.2.1
 msGetErrorObj@Base 6.2.1
 msGetErrorString@Base 6.2.1
 msGetExpressionString@Base 6.2.1
 msGetFriBidiEncodedString@Base 6.2.1
 msGetGDALBandList@Base 6.2.1
 msGetGDALGeoTransform@Base 6.2.1
 msGetGDALNoDataValue@Base 6.2.1
 msGetGlobalDebugLevel@Base 6.2.1
 msGetInnerList@Base 6.2.1
 msGetLabelCacheMember@Base 6.2.1
 msGetLabelSize@Base 6.2.1
 msGetLayerIndex@Base 6.2.1
 msGetLayersIndexByGroup@Base 6.2.1
 msGetMapContextFileText@Base 6.2.1
 msGetMapContextXMLFloatValue@Base 6.2.1
 msGetMapContextXMLHashValue@Base 6.2.1
 msGetMapContextXMLHashValueDecode@Base 6.2.1
 msGetMapContextXMLStringValue@Base 6.2.1
 msGetMapContextXMLStringValueDecode@Base 6.2.1
 msGetMarkerSize@Base 6.2.1
 msGetMeasureUsingPoint@Base 6.2.1
 msGetNextBit@Base 6.2.1
 msGetNextGlyph@Base 6.2.1
 msGetNumGlyphs@Base 6.2.1
 msGetOuterList@Base 6.2.1
 msGetOutputFormatIndex@Base 6.2.1
 msGetOutputFormatMimeList@Base 6.2.1
 msGetOutputFormatMimeListImg@Base 6.2.1
 msGetOutputFormatMimeListWMS@Base 6.2.1
 msGetOutputFormatOption@Base 6.2.1
 msGetPath@Base 6.2.1
 msGetPointUsingMeasure@Base 6.2.1
 msGetPolygonArea@Base 6.2.1
 msGetPolygonCentroid@Base 6.2.1
 msGetProjectionString@Base 6.2.1
 msGetQueryResultBounds@Base 6.2.1
 msGetRasterBufferKml@Base 6.4.0
 msGetRasterTextBBox@Base 6.2.1
 msGetSymbol@Base 6.2.1
 msGetSymbolIndex@Base 6.2.1
 msGetThreadId@Base 6.2.1
 msGetTruetypeTextBBox@Base 6.2.1
 msGetTruetypeTextBBoxKml@Base 6.4.0
 msGetUnicodeEntity@Base 6.2.1
 msGetVersion@Base 6.2.1
 msGetVersionInt@Base 6.2.1
 msGraticuleLayerClose@Base 6.2.1
 msGraticuleLayerFreeIntersectionPoints@Base 6.2.1
 msGraticuleLayerFreeItemInfo@Base 6.2.1
 msGraticuleLayerGetAutoStyle@Base 6.2.1
 msGraticuleLayerGetExtent@Base 6.2.1
 msGraticuleLayerGetIntersectionPoints@Base 6.2.1
 msGraticuleLayerGetItems@Base 6.2.1
 msGraticuleLayerGetShape@Base 6.2.1
 msGraticuleLayerInitItemInfo@Base 6.2.1
 msGraticuleLayerInitializeVirtualTable@Base 6.2.1
 msGraticuleLayerIsOpen@Base 6.2.1
 msGraticuleLayerNextShape@Base 6.2.1
 msGraticuleLayerOpen@Base 6.2.1
 msGraticuleLayerWhichShapes@Base 6.2.1
 msGrowClassLabels@Base 6.2.1
 msGrowClassStyles@Base 6.2.1
 msGrowLabelStyles@Base 6.2.1
 msGrowLayerClasses@Base 6.2.1
 msGrowLayerScaletokens@Base 6.4.0
 msGrowLeaderStyles@Base 6.2.1
 msGrowMapLayers@Base 6.2.1
 msGrowMapservLayers@Base 6.2.1
 msGrowSymbolSet@Base 6.2.1
 msHTTPAuthProxySetup@Base 6.4.0
 msHTTPCleanup@Base 6.2.1
 msHTTPExecuteRequests@Base 6.2.1
 msHTTPFreeRequestObj@Base 6.2.1
 msHTTPGetFile@Base 6.2.1
 msHTTPInit@Base 6.2.1
 msHTTPInitRequestObj@Base 6.2.1
 msHashIsEmpty@Base 6.2.1
 msHashString@Base 6.2.1
 msHatchPolygon@Base 6.2.1
 msHexDecode@Base 6.2.1
 msHexEncode@Base 6.2.1
 msHexToInt@Base 6.2.1
 msHitTestLayer@Base 6.4.0
 msHitTestMap@Base 6.4.0
 msHitTestShape@Base 6.4.0
 msINLINECreateLayerInfo@Base 6.4.0
 msINLINELayerClose@Base 6.4.0
 msINLINELayerGetNumFeatures@Base 6.2.1
 msINLINELayerGetShape@Base 6.2.1
 msINLINELayerInitializeVirtualTable@Base 6.2.1
 msINLINELayerIsOpen@Base 6.2.1
 msINLINELayerNextShape@Base 6.2.1
 msINLINELayerOpen@Base 6.2.1
 msINLINELayerWhichShapes@Base 6.4.0
 msIO_Cleanup@Base 6.2.1
 msIO_bufferRead@Base 6.2.1
 msIO_bufferWrite@Base 6.2.1
 msIO_contextRead@Base 6.2.1
 msIO_contextWrite@Base 6.2.1
 msIO_fprintf@Base 6.2.1
 msIO_fread@Base 6.2.1
 msIO_fwrite@Base 6.2.1
 msIO_getGDIOCtx@Base 6.2.1
 msIO_getHandler@Base 6.2.1
 msIO_installHandlers@Base 6.2.1
 msIO_installStdinFromBuffer@Base 6.2.1
 msIO_installStdoutToBuffer@Base 6.2.1
 msIO_needBinaryStdin@Base 6.2.1
 msIO_needBinaryStdout@Base 6.2.1
 msIO_printf@Base 6.2.1
 msIO_resetHandlers@Base 6.2.1
 msIO_sendHeaders@Base 6.2.1
 msIO_setHeader@Base 6.2.1
 msIO_stripStdoutBufferContentHeaders@Base 6.2.1
 msIO_stripStdoutBufferContentType@Base 6.2.1
 msIO_vfprintf@Base 6.2.1
 msImageCreate@Base 6.2.1
 msImageCreateIM@Base 6.2.1
 msImageEndLayer@Base 6.2.1
 msImagePolylineMarkers@Base 6.2.1
 msImageSetPenGD@Base 6.2.1
 msImageStartLayer@Base 6.2.1
 msImageStartLayerIM@Base 6.2.1
 msInchesPerUnit@Base 6.2.1
 msInitDefaultGDALOutputFormat@Base 6.2.1
 msInitDefaultOGROutputFormat@Base 6.2.1
 msInitFontSet@Base 6.2.1
 msInitLabelCache@Base 6.2.1
 msInitLabelCacheSlot@Base 6.2.1
 msInitProjTransformer@Base 6.2.1
 msInitProjection@Base 6.2.1
 msInitQuery@Base 6.2.1
 msInitShape@Base 6.2.1
 msInitSymbolSet@Base 6.2.1
 msInitWmsParamsObj@Base 6.2.1
 msInitializeDummyRenderer@Base 6.2.1
 msInitializeRendererVTable@Base 6.2.1
 msInitializeVirtualTable@Base 6.2.1
 msInsertClass@Base 6.2.1
 msInsertHashTable@Base 6.2.1
 msInsertLabelStyle@Base 6.2.1
 msInsertLayer@Base 6.2.1
 msInsertStyle@Base 6.2.1
 msIntToString@Base 6.2.1
 msIntegerInArray@Base 6.2.1
 msIntersectMultipointPolygon@Base 6.2.1
 msIntersectPointPolygon@Base 6.2.1
 msIntersectPolygons@Base 6.2.1
 msIntersectPolylinePolygon@Base 6.2.1
 msIntersectPolylines@Base 6.2.1
 msIntersectSegments@Base 6.2.1
 msIntersectionPointLine@Base 6.2.1
 msIsAxisInverted@Base 6.2.1
 msIsDegenerateShape@Base 6.2.1
 msIsLayerQueryable@Base 6.2.1
 msIsOuterRing@Base 6.2.1
 msIsXMLTagValid@Base 6.2.1
 msItemInGroups@Base 6.2.1
 msJoinClose@Base 6.2.1
 msJoinConnect@Base 6.2.1
 msJoinNext@Base 6.2.1
 msJoinPrepare@Base 6.2.1
 msJoinStrings@Base 6.2.1
 msLayerAddProcessing@Base 6.2.1
 msLayerApplyCondSQLFilterToLayer@Base 6.2.1
 msLayerApplyPlainFilterToLayer@Base 6.2.1
 msLayerApplyScaletokens@Base 6.4.0
 msLayerClearProcessing@Base 6.2.1
 msLayerClose@Base 6.2.1
 msLayerDefaultEnablePaging@Base 6.2.1
 msLayerDefaultGetPaging@Base 6.2.1
 msLayerEnablePaging@Base 6.2.1
 msLayerEscapePropertyName@Base 6.2.1
 msLayerEscapeSQLParam@Base 6.2.1
 msLayerFreeItemInfo@Base 6.2.1
 msLayerGetAutoStyle@Base 6.2.1
 msLayerGetExtent@Base 6.2.1
 msLayerGetFeatureStyle@Base 6.2.1
 msLayerGetItemIndex@Base 6.2.1
 msLayerGetItems@Base 6.2.1
 msLayerGetMaxFeaturesToDraw@Base 6.2.1
 msLayerGetNumFeatures@Base 6.2.1
 msLayerGetPaging@Base 6.2.1
 msLayerGetProcessing@Base 6.2.1
 msLayerGetProcessingKey@Base 6.2.1
 msLayerGetShape@Base 6.2.1
 msLayerInitItemInfo@Base 6.2.1
 msLayerIsOpen@Base 6.2.1
 msLayerIsVisible@Base 6.2.1
 msLayerMakeBackticsTimeFilter@Base 6.2.1
 msLayerMakePlainTimeFilter@Base 6.2.1
 msLayerNextShape@Base 6.2.1
 msLayerOpen@Base 6.2.1
 msLayerRestoreFromScaletokens@Base 6.4.0
 msLayerSetExtent@Base 6.2.1
 msLayerSetItems@Base 6.2.1
 msLayerSetProcessingKey@Base 6.2.1
 msLayerSetTimeFilter@Base 6.2.1
 msLayerSupportsCommonFilters@Base 6.2.1
 msLayerSupportsPaging@Base 6.2.1
 msLayerWhichItems@Base 6.2.1
 msLayerWhichShapes@Base 6.2.1
 msLegendCalcSize@Base 6.2.1
 msLibXml2GenerateList@Base 6.2.1
 msLibXml2GetXPath@Base 6.2.1
 msLibXml2GetXPathTree@Base 6.2.1
 msLoadExpressionString@Base 6.2.1
 msLoadFontSet@Base 6.2.1
 msLoadGDRasterBufferFromFile@Base 6.2.1
 msLoadImageSymbol@Base 6.2.1
 msLoadMSRasterBufferFromFile@Base 6.2.1
 msLoadMap@Base 6.2.1
 msLoadMapContext@Base 6.2.1
 msLoadMapContextContactInfo@Base 6.2.1
 msLoadMapContextGeneral@Base 6.2.1
 msLoadMapContextLayer@Base 6.2.1
 msLoadMapContextLayerDimension@Base 6.2.1
 msLoadMapContextLayerFormat@Base 6.2.1
 msLoadMapContextLayerStyle@Base 6.2.1
 msLoadMapContextListInMetadata@Base 6.2.1
 msLoadMapContextURL@Base 6.2.1
 msLoadMapContextURLELements@Base 6.2.1
 msLoadMapFromString@Base 6.2.1
 msLoadProjectionString@Base 6.2.1
 msLoadProjectionStringEPSG@Base 6.2.1
 msLoadQuery@Base 6.2.1
 msLoadSymbolSet@Base 6.2.1
 msLongToString@Base 6.2.1
 msLookupHashTable@Base 6.2.1
 msMapComputeGeotransform@Base 6.2.1
 msMapGeorefToPixel@Base 6.2.1
 msMapIgnoreMissingData@Base 6.2.1
 msMapLoadOWSParameters@Base 6.2.1
 msMapOffsetExtent@Base 6.2.1
 msMapPixelToGeoref@Base 6.2.1
 msMapRestoreRealExtent@Base 6.2.1
 msMapScaleExtent@Base 6.2.1
 msMapSetCenter@Base 6.2.1
 msMapSetExtent@Base 6.2.1
 msMapSetFakedExtent@Base 6.2.1
 msMapSetLayerProjections@Base 6.2.1
 msMapSetRotation@Base 6.2.1
 msMapSetSize@Base 6.2.1
 msMaybeAllocateClassStyle@Base 6.2.1
 msMergeRasterBufferKml@Base 6.4.0
 msMergeRect@Base 6.2.1
 msMoveClassDown@Base 6.2.1
 msMoveClassUp@Base 6.2.1
 msMoveLabelStyleDown@Base 6.2.1
 msMoveLabelStyleUp@Base 6.2.1
 msMoveLayerDown@Base 6.2.1
 msMoveLayerUp@Base 6.2.1
 msMoveStyleDown@Base 6.2.1
 msMoveStyleUp@Base 6.2.1
 msMySQLJoinClose@Base 6.2.1
 msMySQLJoinConnect@Base 6.2.1
 msMySQLJoinNext@Base 6.2.1
 msMySQLJoinPrepare@Base 6.2.1
 msNewGDFileCtx@Base 6.2.1
 msNewMapObj@Base 6.2.1
 msNextKeyFromHashTable@Base 6.2.1
 msOGCWKT2ProjectionObj@Base 6.2.1
 msOGRCleanup@Base 6.2.1
 msOGRGeometryToShape@Base 6.2.1
 msOGRInitialize@Base 6.2.1
 msOGRLayerClose@Base 6.2.1
 msOGRLayerFreeItemInfo@Base 6.2.1
 msOGRLayerGetExtent@Base 6.2.1
 msOGRLayerGetItems@Base 6.2.1
 msOGRLayerGetShape@Base 6.2.1
 msOGRLayerInitializeVirtualTable@Base 6.2.1
 msOGRLayerNextShape@Base 6.2.1
 msOGRLayerOpen@Base 6.2.1
 msOGRLayerWhichShapes@Base 6.2.1
 msOGRRecursiveFileList@Base 6.2.1
 msOGRShapeFromWKT@Base 6.2.1
 msOGRShapeToWKT@Base 6.2.1
 msOGRUpdateStyleFromString@Base 6.2.1
 msOGRWriteFromQuery@Base 6.2.1
 msOWSBuildURLFilename@Base 6.2.1
 msOWSCommonBoundingBox@Base 6.2.1
 msOWSCommonExceptionReport@Base 6.2.1
 msOWSCommonNegotiateVersion@Base 6.2.1
 msOWSCommonOperationsMetadata@Base 6.2.1
 msOWSCommonOperationsMetadataDomainType@Base 6.2.1
 msOWSCommonOperationsMetadataOperation@Base 6.2.1
 msOWSCommonServiceIdentification@Base 6.2.1
 msOWSCommonServiceProvider@Base 6.2.1
 msOWSCommonWGS84BoundingBox@Base 6.2.1
 msOWSCommonxmlNewChildEncoded@Base 6.2.1
 msOWSDispatch@Base 6.2.1
 msOWSExecuteRequests@Base 6.2.1
 msOWSGetDimensionInfo@Base 6.2.1
 msOWSGetEPSGProj@Base 6.2.1
 msOWSGetEncodeMetadata@Base 6.2.1
 msOWSGetLanguage@Base 6.2.1
 msOWSGetLanguageFromList@Base 6.2.1
 msOWSGetLanguageList@Base 6.2.1
 msOWSGetLayerExtent@Base 6.2.1
 msOWSGetOnlineResource2@Base 6.2.1
 msOWSGetOnlineResource@Base 6.2.1
 msOWSGetProjURI@Base 6.2.1
 msOWSGetProjURN@Base 6.2.1
 msOWSGetSchemasLocation@Base 6.2.1
 msOWSGetVersionString@Base 6.2.1
 msOWSIpDisabled@Base 6.4.0
 msOWSIpInList@Base 6.4.0
 msOWSIpInMetadata@Base 6.4.0
 msOWSIpParse@Base 6.4.0
 msOWSLookupMetadata2@Base 6.2.1
 msOWSLookupMetadata@Base 6.2.1
 msOWSLookupMetadataWithLanguage@Base 6.2.1
 msOWSMakeAllLayersUnique@Base 6.2.1
 msOWSNegotiateUpdateSequence@Base 6.2.1
 msOWSNegotiateVersion@Base 6.2.1
 msOWSParseRequestMetadata@Base 6.2.1
 msOWSParseVersionString@Base 6.2.1
 msOWSPrintBoundingBox@Base 6.2.1
 msOWSPrintContactInfo@Base 6.2.1
 msOWSPrintEX_GeographicBoundingBox@Base 6.2.1
 msOWSPrintEncodeMetadata2@Base 6.2.1
 msOWSPrintEncodeMetadata@Base 6.2.1
 msOWSPrintEncodeMetadataList@Base 6.2.1
 msOWSPrintEncodeParam@Base 6.2.1
 msOWSPrintEncodeParamList@Base 6.2.1
 msOWSPrintGroupMetadata2@Base 6.2.1
 msOWSPrintGroupMetadata@Base 6.2.1
 msOWSPrintInspireCommonExtendedCapabilities@Base 6.2.1
 msOWSPrintInspireCommonLanguages@Base 6.2.1
 msOWSPrintInspireCommonMetadata@Base 6.2.1
 msOWSPrintLatLonBoundingBox@Base 6.2.1
 msOWSPrintMetadata@Base 6.2.1
 msOWSPrintMetadataList@Base 6.2.1
 msOWSPrintParam@Base 6.2.1
 msOWSPrintURLType@Base 6.2.1
 msOWSPrintValidateMetadata@Base 6.2.1
 msOWSProcessException@Base 6.2.1
 msOWSProjectToWGS84@Base 6.4.0
 msOWSRequestIsEnabled@Base 6.2.1
 msOWSRequestLayersEnabled@Base 6.2.1
 msOWSSchemaValidation@Base 6.2.1
 msOWSTerminateOnlineResource@Base 6.2.1
 msOffsetCurve@Base 6.4.0
 msOffsetPointRelativeTo@Base 6.2.1
 msOffsetPolyline@Base 6.2.1
 msOffsetShapeRelativeTo@Base 6.2.1
 msOracleSpatialEnablePaging@Base 6.2.1
 msOracleSpatialGetPaging@Base 6.2.1
 msOracleSpatialLayerClose@Base 6.2.1
 msOracleSpatialLayerFreeItemInfo@Base 6.2.1
 msOracleSpatialLayerGetAutoStyle@Base 6.2.1
 msOracleSpatialLayerGetExtent@Base 6.2.1
 msOracleSpatialLayerGetItems@Base 6.2.1
 msOracleSpatialLayerGetShape@Base 6.2.1
 msOracleSpatialLayerInitItemInfo@Base 6.2.1
 msOracleSpatialLayerInitializeVirtualTable@Base 6.2.1
 msOracleSpatialLayerIsOpen@Base 6.2.1
 msOracleSpatialLayerNextShape@Base 6.2.1
 msOracleSpatialLayerOpen@Base 6.2.1
 msOracleSpatialLayerWhichShapes@Base 6.2.1
 msOutputFormatValidate@Base 6.2.1
 msOwsIsOutputFormatValid@Base 6.2.1
 msPOSTGRESQLJoinClose@Base 6.2.1
 msPOSTGRESQLJoinConnect@Base 6.2.1
 msPOSTGRESQLJoinNext@Base 6.2.1
 msPOSTGRESQLJoinPrepare@Base 6.2.1
 msParseTime@Base 6.2.1
 msPluginFreeVirtualTableFactory@Base 6.2.1
 msPluginLayerInitializeVirtualTable@Base 6.2.1
 msPointInPolygon@Base 6.2.1
 msPointInRect@Base 6.2.1
 msPointToFormattedString@Base 6.2.1
 msPolygonDirection@Base 6.2.1
 msPolygonLabelPoint@Base 6.2.1
 msPolylineComputeLineSegments@Base 6.2.1
 msPolylineLabelPath@Base 6.2.1
 msPolylineLabelPathLineString@Base 6.2.1
 msPolylineLabelPoint@Base 6.2.1
 msPolylineLabelPointExtended@Base 6.2.1
 msPolylineLabelPointLineString@Base 6.2.1
 msPopulateRendererVTableAGG@Base 6.2.1
 msPopulateRendererVTableCairoPDF@Base 6.2.1
 msPopulateRendererVTableCairoRaster@Base 6.2.1
 msPopulateRendererVTableCairoSVG@Base 6.2.1
 msPopulateRendererVTableGD@Base 6.2.1
 msPopulateRendererVTableKML@Base 6.2.1
#MISSING: 6.4.0# msPopulateRendererVTableOGL@Base 6.2.1
 msPopulateRendererVTableOGR@Base 6.2.1
 msPositionsText@Base 6.2.1
 msPostGISBase64Decode@Base 6.2.1
 msPostGISBuildSQL@Base 6.2.1
 msPostGISBuildSQLBox@Base 6.2.1
 msPostGISBuildSQLFrom@Base 6.2.1
 msPostGISBuildSQLItems@Base 6.2.1
 msPostGISBuildSQLSRID@Base 6.2.1
 msPostGISBuildSQLWhere@Base 6.2.1
 msPostGISCloseConnection@Base 6.2.1
 msPostGISCreateLayerInfo@Base 6.2.1
 msPostGISEnablePaging@Base 6.2.1
 msPostGISEscapeSQLParam@Base 6.2.1
 msPostGISFreeLayerInfo@Base 6.2.1
 msPostGISGetPaging@Base 6.2.1
 msPostGISHexDecode@Base 6.2.1
 msPostGISLayerClose@Base 6.2.1
 msPostGISLayerFreeItemInfo@Base 6.2.1
 msPostGISLayerGetItems@Base 6.2.1
 msPostGISLayerGetShape@Base 6.2.1
 msPostGISLayerInitItemInfo@Base 6.2.1
 msPostGISLayerInitializeVirtualTable@Base 6.2.1
 msPostGISLayerIsOpen@Base 6.2.1
 msPostGISLayerNextShape@Base 6.2.1
 msPostGISLayerOpen@Base 6.2.1
 msPostGISLayerSetTimeFilter@Base 6.2.1
 msPostGISLayerWhichShapes@Base 6.2.1
 msPostGISParseData@Base 6.2.1
 msPostGISReadShape@Base 6.2.1
 msPostMapParseOutputFormatSetup@Base 6.2.1
 msPreloadImageSymbol@Base 6.2.1
 msPreloadSVGSymbol@Base 6.2.1
 msPrepareImage@Base 6.2.1
 msPrepareWFSLayerRequest@Base 6.2.1
 msPrepareWMSLayerRequest@Base 6.2.1
 msPrintShape@Base 6.2.1
 msProcessLegendTemplate@Base 6.2.1
 msProcessProjection@Base 6.2.1
 msProcessQueryTemplate@Base 6.2.1
 msProcessTemplate@Base 6.2.1
 msProjTransformer@Base 6.2.1
 msProjectLine@Base 6.2.1
 msProjectPoint@Base 6.2.1
 msProjectRect@Base 6.2.1
 msProjectRectGrid@Base 6.2.1
 msProjectShape@Base 6.2.1
 msProjectionObj2OGCWKT@Base 6.2.1
 msProjectionsDiffer@Base 6.2.1
 msQuantizeRasterBuffer@Base 6.2.1
 msQueryByAttributes@Base 6.2.1
 msQueryByFeatures@Base 6.2.1
 msQueryByFilter@Base 6.2.1
 msQueryByIndex@Base 6.2.1
 msQueryByPoint@Base 6.2.1
 msQueryByRect@Base 6.2.1
 msQueryByShape@Base 6.2.1
 msQueryFree@Base 6.2.1
 msRASTERLayerClose@Base 6.2.1
 msRASTERLayerFreeItemInfo@Base 6.2.1
 msRASTERLayerGetExtent@Base 6.2.1
 msRASTERLayerGetItems@Base 6.2.1
 msRASTERLayerGetShape@Base 6.2.1
 msRASTERLayerInitItemInfo@Base 6.2.1
 msRASTERLayerInitializeVirtualTable@Base 6.2.1
 msRASTERLayerIsOpen@Base 6.2.1
 msRASTERLayerNextShape@Base 6.2.1
 msRASTERLayerOpen@Base 6.2.1
 msRASTERLayerSetTimeFilter@Base 6.2.1
 msRASTERLayerWhichShapes@Base 6.2.1
 msRasterQueryByPoint@Base 6.2.1
 msRasterQueryByRect@Base 6.2.1
 msRasterQueryByShape@Base 6.2.1
 msRasterizeArc@Base 6.2.1
 msReadEncryptionKeyFromFile@Base 6.2.1
 msReadTree@Base 6.2.1
 msRectContained@Base 6.2.1
 msRectIntersect@Base 6.2.1
 msRectOverlap@Base 6.2.1
 msRectToFormattedString@Base 6.2.1
 msRectToPolygon@Base 6.2.1
 msRedirect@Base 6.2.1
 msReleaseLock@Base 6.2.1
 msRemoveClass@Base 6.2.1
 msRemoveHashTable@Base 6.2.1
 msRemoveLabelFromClass@Base 6.2.1
 msRemoveLabelStyle@Base 6.2.1
 msRemoveLayer@Base 6.2.1
 msRemoveOutputFormat@Base 6.2.1
 msRemoveStyle@Base 6.2.1
 msRemoveSymbol@Base 6.2.1
 msRenderEllipseSymbolKml@Base 6.4.0
 msRenderGlyphsKml@Base 6.4.0
 msRenderLineKml@Base 6.4.0
 msRenderLineTiledKml@Base 6.4.0
 msRenderPixmapSymbolKml@Base 6.4.0
 msRenderPolygonKml@Base 6.4.0
 msRenderPolygonTiledKml@Base 6.4.0
 msRenderRasterizedSVGSymbol@Base 6.2.1
 msRenderTileKml@Base 6.4.0
 msRenderTruetypeSymbolKml@Base 6.4.0
 msRenderVectorSymbolKml@Base 6.4.0
 msReplaceChar@Base 6.2.1
 msReplaceSubstring@Base 6.2.1
 msResampleGDALToMap@Base 6.2.1
 msResetErrorList@Base 6.2.1
 msRestoreOldFilter@Base 6.2.1
 msReturnNestedTemplateQuery@Base 6.2.1
 msReturnOpenLayersPage@Base 6.2.1
 msReturnPage@Base 6.2.1
 msReturnTemplateQuery@Base 6.2.1
 msReturnURL@Base 6.2.1
 msRotateVectorSymbol@Base 6.2.1
 msSDELayerClose@Base 6.2.1
 msSDELayerCloseConnection@Base 6.2.1
 msSDELayerCreateItems@Base 6.2.1
 msSDELayerFreeItemInfo@Base 6.2.1
 msSDELayerGetExtent@Base 6.2.1
 msSDELayerGetItems@Base 6.2.1
 msSDELayerGetShape@Base 6.2.1
 msSDELayerGetSpatialColumn@Base 6.2.1
 msSDELayerInitItemInfo@Base 6.2.1
 msSDELayerInitializeVirtualTable@Base 6.2.1
 msSDELayerIsOpen@Base 6.2.1
 msSDELayerNextShape@Base 6.2.1
 msSDELayerOpen@Base 6.2.1
 msSDELayerWhichShapes@Base 6.2.1
 msSHPClose@Base 6.2.1
 msSHPCreate@Base 6.2.1
 msSHPDiskTreeClose@Base 6.2.1
 msSHPDiskTreeOpen@Base 6.2.1
 msSHPGetInfo@Base 6.2.1
 msSHPLayerClose@Base 6.2.1
 msSHPLayerFreeItemInfo@Base 6.2.1
 msSHPLayerGetExtent@Base 6.2.1
 msSHPLayerGetItems@Base 6.2.1
 msSHPLayerGetShape@Base 6.2.1
 msSHPLayerInitItemInfo@Base 6.2.1
 msSHPLayerInitializeVirtualTable@Base 6.2.1
 msSHPLayerIsOpen@Base 6.2.1
 msSHPLayerNextShape@Base 6.2.1
 msSHPLayerOpen@Base 6.2.1
 msSHPLayerSupportsCommonFilters@Base 6.2.1
 msSHPLayerWhichShapes@Base 6.2.1
 msSHPOpen@Base 6.2.1
 msSHPReadBounds@Base 6.2.1
 msSHPReadPoint@Base 6.2.1
 msSHPReadShape@Base 6.2.1
 msSHPWritePoint@Base 6.2.1
 msSHPWriteShape@Base 6.2.1
 msSHXLoadAll@Base 6.2.1
 msSHXLoadPage@Base 6.2.1
 msSHXReadOffset@Base 6.2.1
 msSHXReadSize@Base 6.2.1
 msSLDApplySLD@Base 6.2.1
 msSLDApplySLDURL@Base 6.2.1
 msSLDBuildFilterEncoding@Base 6.2.1
 msSLDConvertRegexExpToOgcIsLike@Base 6.2.1
 msSLDGenerateLineSLD@Base 6.2.1
 msSLDGeneratePointSLD@Base 6.2.1
 msSLDGeneratePolygonSLD@Base 6.2.1
 msSLDGenerateSLD@Base 6.2.1
 msSLDGenerateSLDLayer@Base 6.2.1
 msSLDGenerateTextSLD@Base 6.2.1
 msSLDGetAttributeName@Base 6.2.1
 msSLDGetAttributeNameOrValue@Base 6.2.1
 msSLDGetAttributeValue@Base 6.2.1
 msSLDGetComparisonValue@Base 6.2.1
 msSLDGetFilter@Base 6.2.1
 msSLDGetGraphicSLD@Base 6.2.1
 msSLDGetGraphicSymbol@Base 6.2.1
 msSLDGetLeftExpressionOfOperator@Base 6.2.1
 msSLDGetLogicalOperator@Base 6.2.1
 msSLDGetMarkSymbol@Base 6.2.1
 msSLDGetRightExpressionOfOperator@Base 6.2.1
 msSLDNumberOfLogicalOperators@Base 6.2.1
 msSLDParseExpression@Base 6.2.1
 msSLDParseExternalGraphic@Base 6.2.1
 msSLDParseGraphicFillOrStroke@Base 6.2.1
 msSLDParseLineSymbolizer@Base 6.2.1
 msSLDParseLogicalExpression@Base 6.2.1
 msSLDParseNamedLayer@Base 6.2.1
 msSLDParsePointSymbolizer@Base 6.2.1
 msSLDParsePolygonFill@Base 6.2.1
 msSLDParsePolygonSymbolizer@Base 6.2.1
 msSLDParseRasterSymbolizer@Base 6.2.1
 msSLDParseRule@Base 6.2.1
 msSLDParseSLD@Base 6.2.1
 msSLDParseStroke@Base 6.2.1
 msSLDParseTextParams@Base 6.2.1
 msSLDParseTextSymbolizer@Base 6.2.1
 msSLDSetColorObject@Base 6.2.1
 msSOSAddDataBlockDefinition@Base 6.2.1
 msSOSAddGeometryNode@Base 6.2.1
 msSOSAddMemberNode@Base 6.2.1
 msSOSAddMemberNodeObservation@Base 6.2.1
 msSOSAddMetadataChildNode@Base 6.2.1
 msSOSAddPropertyNode@Base 6.2.1
 msSOSAddTimeNode@Base 6.2.1
 msSOSDescribeObservationType@Base 6.2.1
 msSOSDescribeSensor@Base 6.2.1
 msSOSDispatch@Base 6.2.1
 msSOSFreeParamsObj@Base 6.2.1
 msSOSGetCapabilities@Base 6.2.1
 msSOSGetFirstLayerForOffering@Base 6.2.1
 msSOSGetObservation@Base 6.2.1
 msSOSParseRequest@Base 6.2.1
 msSOSParseTimeGML@Base 6.2.1
 msSOSReturnMemberResult@Base 6.2.1
 msSaveImage@Base 6.2.1
 msSaveImageBuffer@Base 6.2.1
 msSaveImageGDAL@Base 6.2.1
 msSaveImageIM@Base 6.2.1
 msSaveImageKml@Base 6.4.0
 msSaveMap@Base 6.2.1
 msSaveMapContext@Base 6.2.1
 msSaveQuery@Base 6.2.1
 msSaveRasterBuffer@Base 6.2.1
 msSaveRasterBufferToBuffer@Base 6.2.1
 msSaveSymbolSet@Base 6.2.1
 msSaveSymbolSetStream@Base 6.2.1
 msScaleInBounds@Base 6.2.1
 msSearchDiskTree@Base 6.2.1
 msSearchTree@Base 6.2.1
 msSelectOutputFormat@Base 6.2.1
 msSetAllBits@Base 6.2.1
 msSetBit@Base 6.2.1
 msSetConfigOption@Base 6.2.1
 msSetError@Base 6.2.1
 msSetErrorFile@Base 6.2.1
 msSetGlobalDebugLevel@Base 6.2.1
 msSetLayersdrawingOrder@Base 6.2.1
 msSetLimitedPattersToUse@Base 6.2.1
 msSetOutputFormatOption@Base 6.2.1
 msSetPROJ_LIB@Base 6.2.1
 msSetup@Base 6.2.1
 msShapeCheckSize@Base 6.2.1
 msShapeDeleteLine@Base 6.2.1
 msShapeFromWKT@Base 6.2.1
 msShapeGetAnnotation@Base 6.2.1
 msShapeGetClass@Base 6.2.1
 msShapeToRange@Base 6.2.1
 msShapeToWKT@Base 6.2.1
 msShapefileClose@Base 6.2.1
 msShapefileCreate@Base 6.2.1
 msShapefileOpen@Base 6.2.1
 msShapefileWhichShapes@Base 6.2.1
 msSmallCalloc@Base 6.2.1
 msSmallMalloc@Base 6.2.1
 msSmallRealloc@Base 6.2.1
 msSmoothShapeSIA@Base 6.4.0
 msSquareDistancePointToPoint@Base 6.2.1
 msSquareDistancePointToSegment@Base 6.2.1
 msSquareDistancePointToShape@Base 6.2.1
 msStartNewLayerKml@Base 6.4.0
 msStartShapeKml@Base 6.4.0
 msStrdup@Base 6.2.1
 msStringChop@Base 6.2.1
 msStringConcatenate@Base 6.2.1
 msStringEscape@Base 6.2.1
 msStringInArray@Base 6.2.1
 msStringIsInteger@Base 6.2.1
 msStringSplit@Base 6.2.1
 msStringSplitComplex@Base 6.2.1
 msStringToLower@Base 6.2.1
 msStringToUpper@Base 6.2.1
 msStringTokenize@Base 6.2.1
 msStringTrim@Base 6.2.1
 msStringTrimBlanks@Base 6.2.1
 msStringTrimEOL@Base 6.2.1
 msStringTrimLeft@Base 6.2.1
 msStripPath@Base 6.2.1
 msStrptime@Base 6.2.1
 msStyleGetGeomTransform@Base 6.2.1
 msStyleSetGeomTransform@Base 6.2.1
 msSymbolGetDefaultSize@Base 6.2.1
 msTestConfigOption@Base 6.2.1
 msTestLabelCacheCollisions@Base 6.2.1
 msThreadInit@Base 6.2.1
 msTileDraw@Base 6.2.1
 msTileIndexAbsoluteDir@Base 6.2.1
 msTileSetExtent@Base 6.2.1
 msTileSetup@Base 6.2.1
 msTiledSHPClose@Base 6.2.1
 msTiledSHPCloseVT@Base 6.2.1
 msTiledSHPGetShape@Base 6.2.1
 msTiledSHPLayerFreeItemInfo@Base 6.2.1
 msTiledSHPLayerGetExtent@Base 6.2.1
 msTiledSHPLayerGetItems@Base 6.2.1
 msTiledSHPLayerInitItemInfo@Base 6.2.1
 msTiledSHPLayerInitializeVirtualTable@Base 6.2.1
 msTiledSHPLayerIsOpen@Base 6.2.1
 msTiledSHPLayerSupportsCommonFilters@Base 6.2.1
 msTiledSHPNextShape@Base 6.2.1
 msTiledSHPOpenFile@Base 6.2.1
 msTiledSHPTryOpen@Base 6.2.1
 msTiledSHPWhichShapes@Base 6.2.1
 msTimeCleanup@Base 6.2.1
 msTimeCompare@Base 6.2.1
 msTimeGetResolution@Base 6.2.1
 msTimeInit@Base 6.2.1
 msTimeMatchPattern@Base 6.2.1
 msTimeSetup@Base 6.2.1
 msTmpFile@Base 6.2.1
 msTmpFilename@Base 6.2.1
 msTmpPath@Base 6.2.1
 msTokenizeExpression@Base 6.2.1
 msTokenizeMap@Base 6.2.1
 msTransformLabelText@Base 6.2.1
 msTransformPixelToShape@Base 6.2.1
 msTransformPoint@Base 6.2.1
 msTransformShape@Base 6.2.1
 msTransformShapeSimplify@Base 6.2.1
 msTransformShapeToPixelDoublePrecision@Base 6.2.1
 msTransformShapeToPixelRound@Base 6.2.1
 msTransformShapeToPixelSnapToGrid@Base 6.2.1
 msTranslateWMS2Mapserv@Base 6.2.1
 msTreeTrim@Base 6.2.1
 msTryBuildPath3@Base 6.2.1
 msTryBuildPath@Base 6.2.1
 msUTF8ToUniChar@Base 6.2.1
 msUVRASTERLayerClose@Base 6.2.1
 msUVRASTERLayerFreeItemInfo@Base 6.2.1
 msUVRASTERLayerGetExtent@Base 6.2.1
 msUVRASTERLayerGetItems@Base 6.2.1
 msUVRASTERLayerGetShape@Base 6.2.1
 msUVRASTERLayerInitializeVirtualTable@Base 6.2.1
 msUVRASTERLayerIsOpen@Base 6.2.1
 msUVRASTERLayerNextShape@Base 6.2.1
 msUVRASTERLayerOpen@Base 6.2.1
 msUVRASTERLayerSetTimeFilter@Base 6.2.1
 msUVRASTERLayerWhichShapes@Base 6.2.1
 msUnionLayerClose@Base 6.2.1
 msUnionLayerCopyVirtualTable@Base 6.2.1
 msUnionLayerFreeExpressionTokens@Base 6.2.1
 msUnionLayerFreeItemInfo@Base 6.2.1
 msUnionLayerGetItems@Base 6.2.1
 msUnionLayerGetNumFeatures@Base 6.2.1
 msUnionLayerGetShape@Base 6.2.1
 msUnionLayerInitItemInfo@Base 6.2.1
 msUnionLayerInitializeVirtualTable@Base 6.2.1
 msUnionLayerIsOpen@Base 6.2.1
 msUnionLayerNextShape@Base 6.2.1
 msUnionLayerOpen@Base 6.2.1
 msUnionLayerWhichShapes@Base 6.2.1
 msUnsetLimitedPatternToUse@Base 6.2.1
 msUpdateClassFromString@Base 6.2.1
 msUpdateClusterFromString@Base 6.2.1
 msUpdateLabelFromString@Base 6.2.1
 msUpdateLayerFromString@Base 6.2.1
 msUpdateLegendFromString@Base 6.2.1
 msUpdateMapFromURL@Base 6.2.1
 msUpdateQueryMapFromString@Base 6.2.1
 msUpdateReferenceMapFromString@Base 6.2.1
 msUpdateScalebarFromString@Base 6.2.1
 msUpdateStyleFromString@Base 6.2.1
 msUpdateWebFromString@Base 6.2.1
 msValidateContexts@Base 6.2.1
 msValidateParameter@Base 6.2.1
 msValidateTimeValue@Base 6.2.1
 msValueToRange@Base 6.2.1
 msWCSCreateParamsObj20@Base 6.2.1
 msWCSDescribeCoverage11@Base 6.2.1
 msWCSDescribeCoverage20@Base 6.2.1
 msWCSDispatch@Base 6.2.1
 msWCSException11@Base 6.2.1
 msWCSException20@Base 6.2.1
 msWCSException@Base 6.2.1
 msWCSFreeParams@Base 6.2.1
 msWCSFreeParamsObj20@Base 6.2.1
 msWCSGetCapabilities11@Base 6.2.1
 msWCSGetCapabilities20@Base 6.2.1
 msWCSGetCoverage20@Base 6.2.1
 msWCSGetCoverageBands11@Base 6.2.1
 msWCSGetCoverageMetadata@Base 6.2.1
 msWCSGetRequestParameter@Base 6.2.1
 msWCSIsLayerSupported@Base 6.2.1
 msWCSParseRequest20@Base 6.2.1
 msWCSReturnCoverage11@Base 6.2.1
 msWCSSetDefaultBandsRangeSetInfo@Base 6.2.1
 msWFSCreateParamsObj@Base 6.2.1
 msWFSDescribeFeatureType@Base 6.2.1
 msWFSDispatch@Base 6.2.1
 msWFSDumpLayer@Base 6.2.1
 msWFSException11@Base 6.2.1
 msWFSException@Base 6.2.1
 msWFSExecuteGetFeature@Base 6.2.1
 msWFSFreeParamsObj@Base 6.2.1
 msWFSGetCapabilities11@Base 6.2.1
 msWFSGetCapabilities@Base 6.2.1
 msWFSGetDefaultVersion@Base 6.2.1
 msWFSGetFeature@Base 6.2.1
 msWFSGetGeomElementName@Base 6.2.1
 msWFSGetOutputFormatList@Base 6.2.1
 msWFSIsLayerSupported@Base 6.2.1
 msWFSLayerClose@Base 6.2.1
 msWFSLayerGetExtent@Base 6.2.1
 msWFSLayerGetItems@Base 6.2.1
 msWFSLayerGetShape@Base 6.2.1
 msWFSLayerInitItemInfo@Base 6.2.1
 msWFSLayerInitializeVirtualTable@Base 6.2.1
 msWFSLayerIsOpen@Base 6.2.1
 msWFSLayerNextShape@Base 6.2.1
 msWFSLayerOpen@Base 6.2.1
 msWFSLayerOpenVT@Base 6.2.1
 msWFSLayerWhichShapes@Base 6.2.1
 msWFSLocateSRSInList@Base 6.2.1
 msWFSParseRequest@Base 6.2.1
 msWFSUpdateRequestInfo@Base 6.2.1
 msWMSApplyDimension@Base 6.2.1
 msWMSApplyDimensionLayer@Base 6.2.1
 msWMSApplyTime@Base 6.2.1
 msWMSDescribeLayer@Base 6.2.1
 msWMSDispatch@Base 6.2.1
 msWMSException@Base 6.2.1
 msWMSFeatureInfo@Base 6.2.1
 msWMSGetCapabilities@Base 6.2.1
 msWMSGetContentDependantLegend@Base 6.4.0
 msWMSGetFeatureInfoURL@Base 6.2.1
 msWMSGetMap@Base 6.2.1
 msWMSGetSchemaExtension@Base 6.2.1
 msWMSGetStyles@Base 6.2.1
 msWMSIsSubGroup@Base 6.2.1
 msWMSLayerExecuteRequest@Base 6.2.1
 msWMSLegendGraphic@Base 6.2.1
 msWMSLoadGetMapParams@Base 6.2.1
 msWMSPrepareNestedGroups@Base 6.2.1
 msWMSPrintAttribution@Base 6.2.1
 msWMSPrintAuthorityURL@Base 6.2.1
 msWMSPrintIdentifier@Base 6.2.1
 msWMSPrintKeywordlist@Base 6.2.1
 msWMSPrintNestedGroups@Base 6.2.1
 msWMSPrintScaleDenominator@Base 6.2.1
 msWMSPrintScaleHint@Base 6.2.1
 msWMSSetTimePattern@Base 6.2.1
 msWMSValidateDimensionValue@Base 6.2.1
 msWrapText@Base 6.2.1
 msWriteClassToString@Base 6.4.0
 msWriteClusterToString@Base 6.4.0
 msWriteError@Base 6.2.1
 msWriteErrorImage@Base 6.2.1
 msWriteErrorXML@Base 6.2.1
 msWriteLabelToString@Base 6.4.0
 msWriteLayerToString@Base 6.4.0
 msWriteLegendToString@Base 6.4.0
 msWriteMapContext@Base 6.2.1
 msWriteMapToString@Base 6.4.0
 msWriteQueryMapToString@Base 6.4.0
 msWriteReferenceMapToString@Base 6.4.0
 msWriteScalebarToString@Base 6.4.0
 msWriteStyleToString@Base 6.4.0
 msWriteTree@Base 6.2.1
 msWriteWebToString@Base 6.4.0
 msXmpPresent@Base 6.2.1
 msXmpWrite@Base 6.2.1
 ms_limited_pattern@Base 6.2.1
 ms_num_limited_pattern@Base 6.2.1
 ms_regcomp@Base 6.2.1
 ms_regerror@Base 6.2.1
 ms_regexec@Base 6.2.1
 ms_regfree@Base 6.2.1
 ms_timeFormats@Base 6.2.1
 ms_time_inited@Base 6.2.1
 msyy_create_buffer@Base 6.2.1
 msyy_delete_buffer@Base 6.2.1
 msyy_flex_debug@Base 6.2.1
 msyy_flush_buffer@Base 6.2.1
 msyy_scan_buffer@Base 6.2.1
 msyy_scan_bytes@Base 6.2.1
 msyy_scan_string@Base 6.2.1
 msyy_switch_to_buffer@Base 6.2.1
 msyyalloc@Base 6.2.1
 msyybasepath@Base 6.2.1
 msyyerror@Base 6.2.1
 msyyfree@Base 6.2.1
 msyyget_debug@Base 6.2.1
 msyyget_in@Base 6.2.1
 msyyget_leng@Base 6.2.1
 msyyget_lineno@Base 6.2.1
 msyyget_out@Base 6.2.1
 msyyget_text@Base 6.2.1
 msyyin@Base 6.2.1
 msyyleng@Base 6.2.1
 msyylex@Base 6.2.1
 msyylex_destroy@Base 6.2.1
 msyylineno@Base 6.2.1
 msyynumber@Base 6.2.1
 msyyout@Base 6.2.1
 msyypop_buffer_state@Base 6.2.1
 msyypush_buffer_state@Base 6.2.1
 msyyrealloc@Base 6.2.1
 msyyrestart@Base 6.2.1
 msyyreturncomments@Base 6.2.1
 msyyset_debug@Base 6.2.1
 msyyset_in@Base 6.2.1
 msyyset_lineno@Base 6.2.1
 msyyset_out@Base 6.2.1
 msyysource@Base 6.2.1
 msyystate@Base 6.2.1
 msyystring@Base 6.2.1
 msyystring_begin@Base 6.2.1
 msyystring_begin_state@Base 6.2.1
 msyystring_buffer@Base 6.2.1
 msyystring_buffer_ptr@Base 6.2.1
 msyystring_buffer_size@Base 6.2.1
 msyystring_icase@Base 6.2.1
 msyystring_return_state@Base 6.2.1
 msyystring_size@Base 6.2.1
 msyystring_size_tmp@Base 6.2.1
 msyytext@Base 6.2.1
 msyywrap@Base 6.2.1
 offsetAndTest@Base 6.2.1
 ogrEnabled@Base 6.2.1
 path@Base 6.2.1
 pieLayerProcessDynamicDiameter@Base 6.2.1
 plustospace@Base 6.2.1
 png_flush_data@Base 6.2.1
 png_write_data_to_buffer@Base 6.2.1
 png_write_data_to_stream@Base 6.2.1
 pointArrayFree@Base 6.2.1
 pointArrayNew@Base 6.2.1
 pointLayerDrawShape@Base 6.2.1
 polygonLayerDrawShape@Base 6.2.1
 populateRendererVTableCairoVector@Base 6.2.1
 postgresTimeStampForTimeString@Base 6.2.1
 postresqlNoticeHandler@Base 6.2.1
 preloadSymbol@Base 6.4.0
 processIcon@Base 6.2.1
 processIfTag@Base 6.2.1
 processMetadata@Base 6.2.1
 processOneToManyJoin@Base 6.2.1
 pszOMNamespacePrefix@Base 6.2.1
 pszOMNamespaceUri@Base 6.2.1
 pszSOSDescribeSensorMimeType@Base 6.2.1
 pszSOSGetObservationMimeType@Base 6.2.1
 pszSOSNamespacePrefix@Base 6.2.1
 pszSOSNamespaceUri@Base 6.2.1
 pszSOSVersion@Base 6.2.1
 rasterfont_sizes@Base 6.2.1
 rasterfonts@Base 6.2.1
 readGIF@Base 6.2.1
 readPNG@Base 6.2.1
 readPalette@Base 6.2.1
 readPostBody@Base 6.2.1
 readTreeNode@Base 6.2.1
 remapPaletteForPNG@Base 6.2.1
 renderBitmapGlyphsGD@Base 6.2.1
 renderEllipseSymbolCairo@Base 6.2.1
 renderEllipseSymbolDummy@Base 6.2.1
 renderEllipseSymbolGD@Base 6.2.1
 renderGlyphsCairo@Base 6.2.1
 renderGlyphsDummy@Base 6.2.1
 renderGlyphsGD@Base 6.2.1
 renderGlyphsLineDummy@Base 6.2.1
 renderGlyphsLineGD@Base 6.2.1
 renderLineCairo@Base 6.2.1
 renderLineDummy@Base 6.2.1
 renderLineGD@Base 6.2.1
 renderLineTiledDummy@Base 6.2.1
 renderPixmapSymbolCairo@Base 6.2.1
 renderPixmapSymbolDummy@Base 6.2.1
 renderPixmapSymbolGD@Base 6.2.1
 renderPolygonCairo@Base 6.2.1
 renderPolygonDummy@Base 6.2.1
 renderPolygonGD@Base 6.2.1
 renderPolygonTiledCairo@Base 6.2.1
 renderPolygonTiledDummy@Base 6.2.1
 renderPolygonTiledGD@Base 6.2.1
 renderRasterGlyphsDummy@Base 6.2.1
 renderSVGSymbolCairo@Base 6.2.1
 renderTileCairo@Base 6.2.1
 renderTileDummy@Base 6.2.1
 renderTileGD@Base 6.2.1
 renderTruetypeSymbolCairo@Base 6.2.1
 renderTruetypeSymbolDummy@Base 6.2.1
 renderTruetypeSymbolGD@Base 6.2.1
 renderVectorSymbolCairo@Base 6.2.1
 renderVectorSymbolDummy@Base 6.2.1
 renderVectorSymbolGD@Base 6.2.1
 resetClassStyle@Base 6.2.1
 resetClipDummy@Base 6.2.1
 rind@Base 6.2.1
 rotatePixmapGD@Base 6.2.1
 rotateVectorSymbolPoints@Base 6.2.1
 saveAsJPEG@Base 6.2.1
 saveAsPNG@Base 6.2.1
 saveGdImage@Base 6.2.1
 saveGdImageBuffer@Base 6.2.1
 saveImageBufferCairo@Base 6.2.1
 saveImageCairo@Base 6.2.1
 saveImageDummy@Base 6.2.1
 saveImageGD@Base 6.2.1
 savePalettePNG@Base 6.2.1
 searchTileCache@Base 6.2.1
 selectClusterShape@Base 6.2.1
 send_fd@Base 6.2.1
 setClipDummy@Base 6.2.1
 setCoordinate@Base 6.2.1
 setExtent@Base 6.2.1
 setExtentFromShapes@Base 6.2.1
 sortLayerByMetadata@Base 6.2.1
 sortLayerByOrder@Base 6.2.1
 startLayerDummy@Base 6.2.1
 startLayerRasterCairo@Base 6.2.1
 startLayerVectorCairo@Base 6.2.1
 startNewLayerGD@Base 6.2.1
 startShapeDummy@Base 6.2.1
 strlcat@Base 6.2.1
 strlcpy@Base 6.2.1
 strrstr@Base 6.2.1
 unescape_url@Base 6.2.1
 (c++)"virtual thunk to ClipperLib::Clipper::Clear()@Base" 6.2.1
 (c++)"virtual thunk to ClipperLib::Clipper::Reset()@Base" 6.2.1
 (c++)"virtual thunk to ClipperLib::Clipper::~Clipper()@Base" 6.2.1
 wkbConvGeometryToShape@Base 6.2.1
 writeSymbol@Base 6.2.1
 x2c@Base 6.2.1
 yyerror@Base 6.2.1
 yylex@Base 6.2.1
 yyparse@Base 6.2.1
